; Disassembly of the file "C:\Downloads\MSX\ethernet\irc\tcpcon.com"
; 
; CPU Type: Z80
; 
; Created with dZ80 2.0
; 
; on Sunday, 02 of June 2013 at 07:02 PM
; 
0000 00        nop     
0001 00        nop     
0002 00        nop     
0003 00        nop     
0004 00        nop     
0005 00        nop     
0006 00        nop     
0007 00        nop     
0008 00        nop     
0009 00        nop     
000a 00        nop     
000b 00        nop     
000c 00        nop     
000d 00        nop     
000e 00        nop     
000f 00        nop     
0010 00        nop     
0011 00        nop     
0012 00        nop     
0013 00        nop     
0014 00        nop     
0015 00        nop     
0016 00        nop     
0017 00        nop     
0018 00        nop     
0019 00        nop     
001a 00        nop     
001b 00        nop     
001c 00        nop     
001d 00        nop     
001e 00        nop     
001f 00        nop     
0020 00        nop     
0021 00        nop     
0022 00        nop     
0023 00        nop     
0024 00        nop     
0025 00        nop     
0026 00        nop     
0027 00        nop     
0028 00        nop     
0029 00        nop     
002a 00        nop     
002b 00        nop     
002c 00        nop     
002d 00        nop     
002e 00        nop     
002f 00        nop     
0030 00        nop     
0031 00        nop     
0032 00        nop     
0033 00        nop     
0034 00        nop     
0035 00        nop     
0036 00        nop     
0037 00        nop     
0038 00        nop     
0039 00        nop     
003a 00        nop     
003b 00        nop     
003c 00        nop     
003d 00        nop     
003e 00        nop     
003f 00        nop     
0040 00        nop     
0041 00        nop     
0042 00        nop     
0043 00        nop     
0044 00        nop     
0045 00        nop     
0046 00        nop     
0047 00        nop     
0048 00        nop     
0049 00        nop     
004a 00        nop     
004b 00        nop     
004c 00        nop     
004d 00        nop     
004e 00        nop     
004f 00        nop     
0050 00        nop     
0051 00        nop     
0052 00        nop     
0053 00        nop     
0054 00        nop     
0055 00        nop     
0056 00        nop     
0057 00        nop     
0058 00        nop     
0059 00        nop     
005a 00        nop     
005b 00        nop     
005c 00        nop     
005d 00        nop     
005e 00        nop     
005f 00        nop     
0060 00        nop     
0061 00        nop     
0062 00        nop     
0063 00        nop     
0064 00        nop     
0065 00        nop     
0066 00        nop     
0067 00        nop     
0068 00        nop     
0069 00        nop     
006a 00        nop     
006b 00        nop     
006c 00        nop     
006d 00        nop     
006e 00        nop     
006f 00        nop     
0070 00        nop     
0071 00        nop     
0072 00        nop     
0073 00        nop     
0074 00        nop     
0075 00        nop     
0076 00        nop     
0077 00        nop     
0078 00        nop     
0079 00        nop     
007a 00        nop     
007b 00        nop     
007c 00        nop     
007d 00        nop     
007e 00        nop     
007f 00        nop     
0080 00        nop     
0081 00        nop     
0082 00        nop     
0083 00        nop     
0084 00        nop     
0085 00        nop     
0086 00        nop     
0087 00        nop     
0088 00        nop     
0089 00        nop     
008a 00        nop     
008b 00        nop     
008c 00        nop     
008d 00        nop     
008e 00        nop     
008f 00        nop     
0090 00        nop     
0091 00        nop     
0092 00        nop     
0093 00        nop     
0094 00        nop     
0095 00        nop     
0096 00        nop     
0097 00        nop     
0098 00        nop     
0099 00        nop     
009a 00        nop     
009b 00        nop     
009c 00        nop     
009d 00        nop     
009e 00        nop     
009f 00        nop     
00a0 00        nop     
00a1 00        nop     
00a2 00        nop     
00a3 00        nop     
00a4 00        nop     
00a5 00        nop     
00a6 00        nop     
00a7 00        nop     
00a8 00        nop     
00a9 00        nop     
00aa 00        nop     
00ab 00        nop     
00ac 00        nop     
00ad 00        nop     
00ae 00        nop     
00af 00        nop     
00b0 00        nop     
00b1 00        nop     
00b2 00        nop     
00b3 00        nop     
00b4 00        nop     
00b5 00        nop     
00b6 00        nop     
00b7 00        nop     
00b8 00        nop     
00b9 00        nop     
00ba 00        nop     
00bb 00        nop     
00bc 00        nop     
00bd 00        nop     
00be 00        nop     
00bf 00        nop     
00c0 00        nop     
00c1 00        nop     
00c2 00        nop     
00c3 00        nop     
00c4 00        nop     
00c5 00        nop     
00c6 00        nop     
00c7 00        nop     
00c8 00        nop     
00c9 00        nop     
00ca 00        nop     
00cb 00        nop     
00cc 00        nop     
00cd 00        nop     
00ce 00        nop     
00cf 00        nop     
00d0 00        nop     
00d1 00        nop     
00d2 00        nop     
00d3 00        nop     
00d4 00        nop     
00d5 00        nop     
00d6 00        nop     
00d7 00        nop     
00d8 00        nop     
00d9 00        nop     
00da 00        nop     
00db 00        nop     
00dc 00        nop     
00dd 00        nop     
00de 00        nop     
00df 00        nop     
00e0 00        nop     
00e1 00        nop     
00e2 00        nop     
00e3 00        nop     
00e4 00        nop     
00e5 00        nop     
00e6 00        nop     
00e7 00        nop     
00e8 00        nop     
00e9 00        nop     
00ea 00        nop     
00eb 00        nop     
00ec 00        nop     
00ed 00        nop     
00ee 00        nop     
00ef 00        nop     
00f0 00        nop     
00f1 00        nop     
00f2 00        nop     
00f3 00        nop     
00f4 00        nop     
00f5 00        nop     
00f6 00        nop     
00f7 00        nop     
00f8 00        nop     
00f9 00        nop     
00fa 00        nop     
00fb 00        nop     
00fc 00        nop     
00fd 00        nop     
00fe 00        nop     
00ff 00        nop     
0100 0e6f      ld      c,6fh
0102 cd0500    call    0005h
0105 b7        or      a
0106 200a      jr      nz,0112h
0108 78        ld      a,b
0109 fe02      cp      02h
010b 3805      jr      c,0112h
010d 3eff      ld      a,0ffh
010f 320509    ld      (0905h),a
0112 110609    ld      de,0906h
0115 0e09      ld      c,09h
0117 cd0500    call    0005h
011a 3e01      ld      a,01h
011c 11b415    ld      de,15b4h
011f cddd04    call    04ddh
0122 300d      jr      nc,0131h
0124 115f09    ld      de,095fh
0127 0e09      ld      c,09h
0129 cd0500    call    0005h
012c 0e00      ld      c,00h
012e c30500    jp      0005h
0131 110204    ld      de,0402h
0134 af        xor     a
0135 cdcaff    call    0ffcah
0138 b7        or      a
0139 2812      jr      z,014dh
013b 011e00    ld      bc,001eh
013e 09        add     hl,bc
013f 11b705    ld      de,05b7h
0142 010600    ld      bc,0006h
0145 edb0      ldir    
0147 cdba05    call    05bah
014a 32bd05    ld      (05bdh),a
014d 21ad14    ld      hl,14adh
0150 1147f8    ld      de,0f847h
0153 010f00    ld      bc,000fh
0156 edb0      ldir    
0158 af        xor     a
0159 0600      ld      b,00h
015b 112222    ld      de,2222h
015e cdcaff    call    0ffcah
0161 78        ld      a,b
0162 b7        or      a
0163 112e13    ld      de,132eh
0166 ca7e05    jp      z,057eh
0169 3e01      ld      a,01h
016b 112222    ld      de,2222h
016e cdcaff    call    0ffcah
0171 22f508    ld      (08f5h),hl
0174 4f        ld      c,a
0175 7c        ld      a,h
0176 fec0      cp      0c0h
0178 79        ld      a,c
0179 3807      jr      c,0182h
017b 3ec9      ld      a,0c9h
017d 32e708    ld      (08e7h),a
0180 1812      jr      0194h
0182 32e808    ld      (08e8h),a
0185 78        ld      a,b
0186 feff      cp      0ffh
0188 2007      jr      nz,0191h
018a 3ec9      ld      a,0c9h
018c 32ef08    ld      (08efh),a
018f 1803      jr      0194h
0191 32f008    ld      (08f0h),a
0194 3e01      ld      a,01h
0196 11b414    ld      de,14b4h
0199 cddd04    call    04ddh
019c 3e02      ld      a,02h
019e 11b415    ld      de,15b4h
01a1 cddd04    call    04ddh
01a4 da8f05    jp      c,058fh
01a7 21b415    ld      hl,15b4h
01aa cdde07    call    07deh
01ad da8505    jp      c,0585h
01b0 ed43fb08  ld      (08fbh),bc
01b4 3e03      ld      a,03h
01b6 dd67      ld      ixh,a
01b8 11b415    ld      de,15b4h
01bb cddd04    call    04ddh
01be 3824      jr      c,01e4h
01c0 3ab415    ld      a,(15b4h)
01c3 f620      or      20h
01c5 fe70      cp      70h
01c7 2007      jr      nz,01d0h
01c9 3e01      ld      a,01h
01cb 320109    ld      (0901h),a
01ce 180d      jr      01ddh
01d0 21b415    ld      hl,15b4h
01d3 cdde07    call    07deh
01d6 da8505    jp      c,0585h
01d9 ed43fd08  ld      (08fdh),bc
01dd dd7c      ld      a,ixh
01df 3c        inc     a
01e0 fe05      cp      05h
01e2 38d2      jr      c,01b6h
01e4 3a0509    ld      a,(0905h)
01e7 b7        or      a
01e8 115905    ld      de,0559h
01eb 0e63      ld      c,63h
01ed c40500    call    nz,0005h
01f0 11310b    ld      de,0b31h
01f3 0e09      ld      c,09h
01f5 cd0500    call    0005h
01f8 cde708    call    08e7h
01fb 21b414    ld      hl,14b4h
01fe 0600      ld      b,00h
0200 3e06      ld      a,06h
0202 cdf408    call    08f4h
0205 47        ld      b,a
0206 dd21860e  ld      ix,0e86h
020a b7        or      a
020b 2041      jr      nz,024eh
020d 3e1d      ld      a,1dh
020f cdf408    call    08f4h
0212 cd6308    call    0863h
0215 cde708    call    08e7h
0218 0601      ld      b,01h
021a 3e07      ld      a,07h
021c cdf408    call    08f4h
021f b7        or      a
0220 dd21260f  ld      ix,0f26h
0224 2028      jr      nz,024eh
0226 78        ld      a,b
0227 fe02      cp      02h
0229 20e2      jr      nz,020dh
022b 22f708    ld      (08f7h),hl
022e ed53f908  ld      (08f9h),de
0232 dd21710e  ld      ix,0e71h
0236 3e24      ld      a,24h
0238 cdbe05    call    05beh
023b 116d0e    ld      de,0e6dh
023e 0e09      ld      c,09h
0240 cd0500    call    0005h
0243 11810e    ld      de,0e81h
0246 0e09      ld      c,09h
0248 cd0500    call    0005h
024b c37902    jp      0279h
024e dde5      push    ix
0250 c5        push    bc
0251 dd21670e  ld      ix,0e67h
0255 cd6a08    call    086ah
0258 dd36003a  ld      (ix+00h),3ah
025c dd360120  ld      (ix+01h),20h
0260 dd360224  ld      (ix+02h),24h
0264 115f0e    ld      de,0e5fh
0267 0e09      ld      c,09h
0269 cd0500    call    0005h
026c c1        pop     bc
026d d1        pop     de
026e cdac08    call    08ach
0271 0e09      ld      c,09h
0273 cd0500    call    0005h
0276 c39905    jp      0599h
0279 cde708    call    08e7h
027c 3e0f      ld      a,0fh
027e 0600      ld      b,00h
0280 cdf408    call    08f4h
0283 21f708    ld      hl,08f7h
0286 3e0d      ld      a,0dh
0288 cdf408    call    08f4h
028b b7        or      a
028c 2839      jr      z,02c7h
028e fe01      cp      01h
0290 2021      jr      nz,02b3h
0292 3a0109    ld      a,(0901h)
0295 b7        or      a
0296 115a13    ld      de,135ah
0299 ca7e05    jp      z,057eh
029c 2af708    ld      hl,(08f7h)
029f ed5bf908  ld      de,(08f9h)
02a3 7c        ld      a,h
02a4 b5        or      l
02a5 b2        or      d
02a6 b3        or      e
02a7 113214    ld      de,1432h
02aa ca7e05    jp      z,057eh
02ad 11b713    ld      de,13b7h
02b0 c37e05    jp      057eh
02b3 f5        push    af
02b4 11f80a    ld      de,0af8h
02b7 0e09      ld      c,09h
02b9 cd0500    call    0005h
02bc f1        pop     af
02bd 47        ld      b,a
02be 11f510    ld      de,10f5h
02c1 cdac08    call    08ach
02c4 c37e05    jp      057eh
02c7 78        ld      a,b
02c8 320209    ld      (0902h),a
02cb 11040b    ld      de,0b04h
02ce 0e09      ld      c,09h
02d0 cd0500    call    0005h
02d3 cde708    call    08e7h
02d6 3e1d      ld      a,1dh
02d8 cdf408    call    08f4h
02db 3aecfb    ld      a,(0fbech)
02de cb57      bit     2,a
02e0 ca5905    jp      z,0559h
02e3 3a0209    ld      a,(0902h)
02e6 47        ld      b,a
02e7 210000    ld      hl,0000h
02ea 3e10      ld      a,10h
02ec cdf408    call    08f4h
02ef b7        or      a
02f0 2814      jr      z,0306h
02f2 c5        push    bc
02f3 11830e    ld      de,0e83h
02f6 0e09      ld      c,09h
02f8 cd0500    call    0005h
02fb c1        pop     bc
02fc 11af11    ld      de,11afh
02ff 41        ld      b,c
0300 cdac08    call    08ach
0303 c37e05    jp      057eh
0306 78        ld      a,b
0307 fe04      cp      04h
0309 20cb      jr      nz,02d6h
030b 11490b    ld      de,0b49h
030e 0e09      ld      c,09h
0310 cd0500    call    0005h
0313 cde708    call    08e7h
0316 3a0209    ld      a,(0902h)
0319 47        ld      b,a
031a 11b415    ld      de,15b4h
031d 210004    ld      hl,0400h
0320 3e12      ld      a,12h
0322 cdf408    call    08f4h
0325 b7        or      a
0326 c28704    jp      nz,0487h
0329 78        ld      a,b
032a b1        or      c
032b 281e      jr      z,034bh
032d 21b415    ld      hl,15b4h
0330 3aecfb    ld      a,(0fbech)
0333 cb57      bit     2,a
0335 ca5905    jp      z,0559h
0338 c5        push    bc
0339 7e        ld      a,(hl)
033a 23        inc     hl
033b e5        push    hl
033c 5f        ld      e,a
033d 0e02      ld      c,02h
033f cd0500    call    0005h
0342 e1        pop     hl
0343 c1        pop     bc
0344 0b        dec     bc
0345 78        ld      a,b
0346 b1        or      c
0347 20e7      jr      nz,0330h
0349 1834      jr      037fh
034b cde708    call    08e7h
034e 3a0209    ld      a,(0902h)
0351 47        ld      b,a
0352 210000    ld      hl,0000h
0355 3e10      ld      a,10h
0357 cdf408    call    08f4h
035a b7        or      a
035b c28704    jp      nz,0487h
035e 78        ld      a,b
035f fe04      cp      04h
0361 281c      jr      z,037fh
0363 3a0209    ld      a,(0902h)
0366 47        ld      b,a
0367 3e0e      ld      a,0eh
0369 cdf408    call    08f4h
036c 11810e    ld      de,0e81h
036f 0e09      ld      c,09h
0371 cd0500    call    0005h
0374 11d911    ld      de,11d9h
0377 0e09      ld      c,09h
0379 cd0500    call    0005h
037c c39905    jp      0599h
037f 3aecfb    ld      a,(0fbech)
0382 cb57      bit     2,a
0384 ca5905    jp      z,0559h
0387 3aebfb    ld      a,(0fbebh)
038a e6e0      and     0e0h
038c fee0      cp      0e0h
038e cafe03    jp      z,03feh
0391 cb6f      bit     5,a
0393 200a      jr      nz,039fh
0395 11680b    ld      de,0b68h
0398 0e09      ld      c,09h
039a cd0500    call    0005h
039d 1852      jr      03f1h
039f cb77      bit     6,a
03a1 2027      jr      nz,03cah
03a3 3a0309    ld      a,(0903h)
03a6 2f        cpl     
03a7 320309    ld      (0903h),a
03aa 116b0d    ld      de,0d6bh
03ad 21420e    ld      hl,0e42h
03b0 b7        or      a
03b1 2806      jr      z,03b9h
03b3 11930d    ld      de,0d93h
03b6 214b0e    ld      hl,0e4bh
03b9 e5        push    hl
03ba 0e09      ld      c,09h
03bc cd0500    call    0005h
03bf e1        pop     hl
03c0 11bf0b    ld      de,0bbfh
03c3 010900    ld      bc,0009h
03c6 edb0      ldir    
03c8 1827      jr      03f1h
03ca 3a0409    ld      a,(0904h)
03cd ee09      xor     09h
03cf 320409    ld      (0904h),a
03d2 fe01      cp      01h
03d4 11c00d    ld      de,0dc0h
03d7 21540e    ld      hl,0e54h
03da 2806      jr      z,03e2h
03dc 11de0d    ld      de,0ddeh
03df 21570e    ld      hl,0e57h
03e2 e5        push    hl
03e3 0e09      ld      c,09h
03e5 cd0500    call    0005h
03e8 e1        pop     hl
03e9 11260c    ld      de,0c26h
03ec 010300    ld      bc,0003h
03ef edb0      ldir    
03f1 0e06      ld      c,06h
03f3 1eff      ld      e,0ffh
03f5 cd0500    call    0005h
03f8 b7        or      a
03f9 20f6      jr      nz,03f1h
03fb c37c04    jp      047ch
03fe 0e0b      ld      c,0bh
0400 cd0500    call    0005h
0403 b7        or      a
0404 ca7c04    jp      z,047ch
0407 3a0309    ld      a,(0903h)
040a b7        or      a
040b 2037      jr      nz,0444h
040d 3eff      ld      a,0ffh
040f 32b415    ld      (15b4h),a
0412 0e0a      ld      c,0ah
0414 11b415    ld      de,15b4h
0417 cd0500    call    0005h
041a cdb005    call    05b0h
041d 3ab515    ld      a,(15b5h)
0420 4f        ld      c,a
0421 0600      ld      b,00h
0423 03        inc     bc
0424 21b615    ld      hl,15b6h
0427 09        add     hl,bc
0428 360a      ld      (hl),0ah
042a 03        inc     bc
042b c5        push    bc
042c cde708    call    08e7h
042f e1        pop     hl
0430 3a0209    ld      a,(0902h)
0433 47        ld      b,a
0434 11b615    ld      de,15b6h
0437 0e01      ld      c,01h
0439 3e11      ld      a,11h
043b cdf408    call    08f4h
043e b7        or      a
043f c28704    jp      nz,0487h
0442 1838      jr      047ch
0444 3a0409    ld      a,(0904h)
0447 4f        ld      c,a
0448 c5        push    bc
0449 cd0500    call    0005h
044c 32b415    ld      (15b4h),a
044f e1        pop     hl
0450 fe0d      cp      0dh
0452 210100    ld      hl,0001h
0455 200e      jr      nz,0465h
0457 3e0a      ld      a,0ah
0459 32b515    ld      (15b5h),a
045c 7d        ld      a,l
045d fe01      cp      01h
045f ccb005    call    z,05b0h
0462 210200    ld      hl,0002h
0465 e5        push    hl
0466 cde708    call    08e7h
0469 e1        pop     hl
046a 3a0209    ld      a,(0902h)
046d 47        ld      b,a
046e 11b415    ld      de,15b4h
0471 0e01      ld      c,01h
0473 3e11      ld      a,11h
0475 cdf408    call    08f4h
0478 b7        or      a
0479 c28704    jp      nz,0487h
047c cde708    call    08e7h
047f 3e1d      ld      a,1dh
0481 cdf408    call    08f4h
0484 c31303    jp      0313h
0487 fe0b      cp      0bh
0489 281b      jr      z,04a6h
048b 11c412    ld      de,12c4h
048e 47        ld      b,a
048f cdac08    call    08ach
0492 0e09      ld      c,09h
0494 cd0500    call    0005h
0497 cde708    call    08e7h
049a 3a0209    ld      a,(0902h)
049d 47        ld      b,a
049e 3e0e      ld      a,0eh
04a0 cdf408    call    08f4h
04a3 c39905    jp      0599h
04a6 11810e    ld      de,0e81h
04a9 0e09      ld      c,09h
04ab cd0500    call    0005h
04ae cde708    call    08e7h
04b1 3a0209    ld      a,(0902h)
04b4 47        ld      b,a
04b5 210000    ld      hl,0000h
04b8 3e10      ld      a,10h
04ba cdf408    call    08f4h
04bd 41        ld      b,c
04be cbf8      set     7,b
04c0 11af11    ld      de,11afh
04c3 cdac08    call    08ach
04c6 c37e05    jp      057eh
04c9 1a        ld      a,(de)
04ca be        cp      (hl)
04cb c0        ret     nz

04cc b7        or      a
04cd c8        ret     z

04ce 23        inc     hl
04cf 13        inc     de
04d0 18f7      jr      04c9h
04d2 cdd704    call    04d7h
04d5 3f        ccf     
04d6 c9        ret     

04d7 7c        ld      a,h
04d8 92        sub     d
04d9 c0        ret     nz

04da 7d        ld      a,l
04db 93        sub     e
04dc c9        ret     

04dd b7        or      a
04de 37        scf     
04df c8        ret     z

04e0 47        ld      b,a
04e1 3a8000    ld      a,(0080h)
04e4 b7        or      a
04e5 37        scf     
04e6 c8        ret     z

04e7 78        ld      a,b
04e8 f5        push    af
04e9 e5        push    hl
04ea 3a8000    ld      a,(0080h)
04ed 4f        ld      c,a
04ee 0600      ld      b,00h
04f0 218100    ld      hl,0081h
04f3 09        add     hl,bc
04f4 3600      ld      (hl),00h
04f6 e1        pop     hl
04f7 f1        pop     af
04f8 e5        push    hl
04f9 d5        push    de
04fa dde5      push    ix
04fc dd210000  ld      ix,0000h
0500 dd67      ld      ixh,a
0502 218100    ld      hl,0081h
0505 7e        ld      a,(hl)
0506 b7        or      a
0507 2812      jr      z,051bh
0509 fe20      cp      20h
050b 23        inc     hl
050c 28f7      jr      z,0505h
050e dd23      inc     ix
0510 7e        ld      a,(hl)
0511 b7        or      a
0512 2807      jr      z,051bh
0514 fe20      cp      20h
0516 23        inc     hl
0517 28ec      jr      z,0505h
0519 18f5      jr      0510h
051b dd7d      ld      a,ixl
051d ddbc      cp      ixh
051f 3832      jr      c,0553h
0521 218100    ld      hl,0081h
0524 0601      ld      b,01h
0526 7e        ld      a,(hl)
0527 fe20      cp      20h
0529 23        inc     hl
052a 28fa      jr      z,0526h
052c dd7c      ld      a,ixh
052e b8        cp      b
052f 2809      jr      z,053ah
0531 04        inc     b
0532 7e        ld      a,(hl)
0533 fe20      cp      20h
0535 23        inc     hl
0536 20fa      jr      nz,0532h
0538 18ec      jr      0526h
053a 0600      ld      b,00h
053c 2b        dec     hl
053d 04        inc     b
053e 7e        ld      a,(hl)
053f fe20      cp      20h
0541 2808      jr      z,054bh
0543 b7        or      a
0544 2805      jr      z,054bh
0546 12        ld      (de),a
0547 13        inc     de
0548 23        inc     hl
0549 18f2      jr      053dh
054b af        xor     a
054c 12        ld      (de),a
054d 05        dec     b
054e dd7d      ld      a,ixl
0550 b7        or      a
0551 1801      jr      0554h
0553 37        scf     
0554 dde1      pop     ix
0556 d1        pop     de
0557 e1        pop     hl
0558 c9        ret     

0559 3a0209    ld      a,(0902h)
055c feff      cp      0ffh
055e 2839      jr      z,0599h
0560 f5        push    af
0561 cde708    call    08e7h
0564 c1        pop     bc
0565 3aebfb    ld      a,(0fbebh)
0568 cb4f      bit     1,a
056a 3e0e      ld      a,0eh
056c 11fd0d    ld      de,0dfdh
056f 2005      jr      nz,0576h
0571 3e0f      ld      a,0fh
0573 111f0e    ld      de,0e1fh
0576 d5        push    de
0577 cdf408    call    08f4h
057a d1        pop     de
057b c37e05    jp      057eh
057e 0e09      ld      c,09h
0580 cd0500    call    0005h
0583 1814      jr      0599h
0585 11c20a    ld      de,0ac2h
0588 0e09      ld      c,09h
058a cd0500    call    0005h
058d 180a      jr      0599h
058f 11dd0a    ld      de,0addh
0592 0e09      ld      c,09h
0594 cd0500    call    0005h
0597 1800      jr      0599h
0599 3abd05    ld      a,(05bdh)
059c cdb705    call    05b7h
059f 3a0509    ld      a,(0905h)
05a2 b7        or      a
05a3 110000    ld      de,0000h
05a6 0e63      ld      c,63h
05a8 c40500    call    nz,0005h
05ab 0e00      ld      c,00h
05ad c30500    jp      0005h
05b0 1e0a      ld      e,0ah
05b2 0e02      ld      c,02h
05b4 c30500    jp      0005h
05b7 d3fd      out     (0fdh),a
05b9 c9        ret     

05ba dbfd      in      a,(0fdh)
05bc c9        ret     

05bd 02        ld      (bc),a
05be f5        push    af
05bf 7d        ld      a,l
05c0 cd6a08    call    086ah
05c3 dd36002e  ld      (ix+00h),2eh
05c7 dd23      inc     ix
05c9 7c        ld      a,h
05ca cd6a08    call    086ah
05cd dd36002e  ld      (ix+00h),2eh
05d1 dd23      inc     ix
05d3 7b        ld      a,e
05d4 cd6a08    call    086ah
05d7 dd36002e  ld      (ix+00h),2eh
05db dd23      inc     ix
05dd 7a        ld      a,d
05de cd6a08    call    086ah
05e1 f1        pop     af
05e2 dd7700    ld      (ix+00h),a
05e5 c9        ret     

05e6 f5        push    af
05e7 dde5      push    ix
05e9 d5        push    de
05ea e5        push    hl
05eb dd21c407  ld      ix,07c4h
05ef f5        push    af
05f0 f5        push    af
05f1 e607      and     07h
05f3 dd7700    ld      (ix+00h),a
05f6 f1        pop     af
05f7 e618      and     18h
05f9 0f        rrca    
05fa 0f        rrca    
05fb 0f        rrca    
05fc dd7701    ld      (ix+01h),a
05ff f1        pop     af
0600 e6e0      and     0e0h
0602 07        rlca    
0603 07        rlca    
0604 07        rlca    
0605 dd7706    ld      (ix+06h),a
0608 dd7002    ld      (ix+02h),b
060b dd7103    ld      (ix+03h),c
060e af        xor     a
060f dd7704    ld      (ix+04h),a
0612 dd7705    ld      (ix+05h),a
0615 3e0a      ld      a,0ah
0617 dd7707    ld      (ix+07h),a
061a dd750d    ld      (ix+0dh),l
061d dd740e    ld      (ix+0eh),h
0620 21d407    ld      hl,07d4h
0623 dd750a    ld      (ix+0ah),l
0626 dd740b    ld      (ix+0bh),h
0629 dd7e00    ld      a,(ix+00h)
062c b7        or      a
062d 2814      jr      z,0643h
062f fe05      cp      05h
0631 d23806    jp      nc,0638h
0634 3e10      ld      a,10h
0636 1808      jr      0640h
0638 3e02      ld      a,02h
063a 1600      ld      d,00h
063c ddcb0686  res     0,(ix+06h)
0640 dd7707    ld      (ix+07h),a
0643 dd7e00    ld      a,(ix+00h)
0646 fe07      cp      07h
0648 ca5306    jp      z,0653h
064b fe04      cp      04h
064d 200e      jr      nz,065dh
064f 3e48      ld      a,48h
0651 1802      jr      0655h
0653 3e42      ld      a,42h
0655 77        ld      (hl),a
0656 23        inc     hl
0657 dd3404    inc     (ix+04h)
065a dd3405    inc     (ix+05h)
065d 7a        ld      a,d
065e b3        or      e
065f 2821      jr      z,0682h
0661 ddcb0646  bit     0,(ix+06h)
0665 2811      jr      z,0678h
0667 cb7a      bit     7,d
0669 280d      jr      z,0678h
066b e5        push    hl
066c 210000    ld      hl,0000h
066f af        xor     a
0670 ed52      sbc     hl,de
0672 eb        ex      de,hl
0673 e1        pop     hl
0674 3e02      ld      a,02h
0676 180b      jr      0683h
0678 ddcb064e  bit     1,(ix+06h)
067c 2804      jr      z,0682h
067e 3e01      ld      a,01h
0680 1801      jr      0683h
0682 af        xor     a
0683 dd770c    ld      (ix+0ch),a
0686 0604      ld      b,04h
0688 af        xor     a
0689 ddbe00    cp      (ix+00h)
068c ca9b06    jp      z,069bh
068f 3e04      ld      a,04h
0691 ddbe00    cp      (ix+00h)
0694 d29d06    jp      nc,069dh
0697 0608      ld      b,08h
0699 1802      jr      069dh
069b 0605      ld      b,05h
069d d5        push    de
069e c5        push    bc
069f e5        push    hl
06a0 7a        ld      a,d
06a1 4b        ld      c,e
06a2 1600      ld      d,00h
06a4 dd5e07    ld      e,(ix+07h)
06a7 210000    ld      hl,0000h
06aa 0610      ld      b,10h
06ac cb11      rl      c
06ae 17        rla     
06af ed6a      adc     hl,hl
06b1 ed52      sbc     hl,de
06b3 3001      jr      nc,06b6h
06b5 19        add     hl,de
06b6 3f        ccf     
06b7 10f3      djnz    06ach
06b9 cb11      rl      c
06bb 17        rla     
06bc 57        ld      d,a
06bd 59        ld      e,c
06be 7d        ld      a,l
06bf e1        pop     hl
06c0 c1        pop     bc
06c1 fe0a      cp      0ah
06c3 d2ca06    jp      nc,06cah
06c6 c630      add     a,30h
06c8 1804      jr      06ceh
06ca d60a      sub     0ah
06cc c641      add     a,41h
06ce 77        ld      (hl),a
06cf 23        inc     hl
06d0 dd3404    inc     (ix+04h)
06d3 dd3405    inc     (ix+05h)
06d6 10c6      djnz    069eh
06d8 d1        pop     de
06d9 ddcb0656  bit     2,(ix+06h)
06dd 2014      jr      nz,06f3h
06df 2b        dec     hl
06e0 dd4605    ld      b,(ix+05h)
06e3 05        dec     b
06e4 7e        ld      a,(hl)
06e5 fe30      cp      30h
06e7 2009      jr      nz,06f2h
06e9 2b        dec     hl
06ea dd3504    dec     (ix+04h)
06ed dd3505    dec     (ix+05h)
06f0 10f2      djnz    06e4h
06f2 23        inc     hl
06f3 dd7e00    ld      a,(ix+00h)
06f6 fe02      cp      02h
06f8 2818      jr      z,0712h
06fa fe03      cp      03h
06fc 2808      jr      z,0706h
06fe fe06      cp      06h
0700 2024      jr      nz,0726h
0702 3e42      ld      a,42h
0704 180e      jr      0714h
0706 3e23      ld      a,23h
0708 77        ld      (hl),a
0709 23        inc     hl
070a dd3404    inc     (ix+04h)
070d dd3405    inc     (ix+05h)
0710 1814      jr      0726h
0712 3e48      ld      a,48h
0714 77        ld      (hl),a
0715 23        inc     hl
0716 3e26      ld      a,26h
0718 77        ld      (hl),a
0719 23        inc     hl
071a dd3404    inc     (ix+04h)
071d dd3404    inc     (ix+04h)
0720 dd3405    inc     (ix+05h)
0723 dd3405    inc     (ix+05h)
0726 dd7e0c    ld      a,(ix+0ch)
0729 b7        or      a
072a 2814      jr      z,0740h
072c fe01      cp      01h
072e 2006      jr      nz,0736h
0730 3e2b      ld      a,2bh
0732 1804      jr      0738h
0734 180a      jr      0740h
0736 3e2d      ld      a,2dh
0738 77        ld      (hl),a
0739 23        inc     hl
073a dd3404    inc     (ix+04h)
073d dd3405    inc     (ix+05h)
0740 dd7e02    ld      a,(ix+02h)
0743 ddbe04    cp      (ix+04h)
0746 da5907    jp      c,0759h
0749 280e      jr      z,0759h
074b dd9604    sub     (ix+04h)
074e 47        ld      b,a
074f dd7e03    ld      a,(ix+03h)
0752 77        ld      (hl),a
0753 23        inc     hl
0754 dd3404    inc     (ix+04h)
0757 10f9      djnz    0752h
0759 dd6e0a    ld      l,(ix+0ah)
075c dd660b    ld      h,(ix+0bh)
075f af        xor     a
0760 e5        push    hl
0761 dd7708    ld      (ix+08h),a
0764 dd7e04    ld      a,(ix+04h)
0767 3d        dec     a
0768 5f        ld      e,a
0769 1600      ld      d,00h
076b 19        add     hl,de
076c eb        ex      de,hl
076d e1        pop     hl
076e dd7e04    ld      a,(ix+04h)
0771 cb3f      srl     a
0773 47        ld      b,a
0774 c5        push    bc
0775 1a        ld      a,(de)
0776 46        ld      b,(hl)
0777 eb        ex      de,hl
0778 12        ld      (de),a
0779 70        ld      (hl),b
077a eb        ex      de,hl
077b 23        inc     hl
077c 1b        dec     de
077d c1        pop     bc
077e 78        ld      a,b
077f b7        or      a
0780 2802      jr      z,0784h
0782 10f0      djnz    0774h
0784 dd6e0a    ld      l,(ix+0ah)
0787 dd660b    ld      h,(ix+0bh)
078a dd5e0d    ld      e,(ix+0dh)
078d dd560e    ld      d,(ix+0eh)
0790 dd4e04    ld      c,(ix+04h)
0793 0600      ld      b,00h
0795 edb0      ldir    
0797 eb        ex      de,hl
0798 dd7e01    ld      a,(ix+01h)
079b e607      and     07h
079d b7        or      a
079e 2818      jr      z,07b8h
07a0 fe01      cp      01h
07a2 280e      jr      z,07b2h
07a4 fe02      cp      02h
07a6 2807      jr      z,07afh
07a8 2b        dec     hl
07a9 7e        ld      a,(hl)
07aa f680      or      80h
07ac 77        ld      (hl),a
07ad 1809      jr      07b8h
07af af        xor     a
07b0 1802      jr      07b4h
07b2 3e24      ld      a,24h
07b4 77        ld      (hl),a
07b5 dd3404    inc     (ix+04h)
07b8 dd4605    ld      b,(ix+05h)
07bb dd4e04    ld      c,(ix+04h)
07be e1        pop     hl
07bf d1        pop     de
07c0 dde1      pop     ix
07c2 f1        pop     af
07c3 c9        ret     

07c4 00        nop     
07c5 00        nop     
07c6 00        nop     
07c7 00        nop     
07c8 00        nop     
07c9 00        nop     
07ca 00        nop     
07cb 00        nop     
07cc 00        nop     
07cd 00        nop     
07ce 00        nop     
07cf 00        nop     
07d0 00        nop     
07d1 00        nop     
07d2 00        nop     
07d3 00        nop     
07d4 00        nop     
07d5 00        nop     
07d6 00        nop     
07d7 00        nop     
07d8 00        nop     
07d9 00        nop     
07da 00        nop     
07db 00        nop     
07dc 00        nop     
07dd 00        nop     
07de cdea07    call    07eah
07e1 d8        ret     c

07e2 da8505    jp      c,0585h
07e5 7b        ld      a,e
07e6 b7        or      a
07e7 c8        ret     z

07e8 37        scf     
07e9 c9        ret     

07ea e5        push    hl
07eb dde5      push    ix
07ed dd212b08  ld      ix,082bh
07f1 ddcb0086  res     0,(ix+00h)
07f5 ddcb00ce  set     1,(ix+00h)
07f9 010000    ld      bc,0000h
07fc 110000    ld      de,0000h
07ff 7e        ld      a,(hl)
0800 5f        ld      e,a
0801 fe30      cp      30h
0803 3827      jr      c,082ch
0805 fe3a      cp      3ah
0807 3023      jr      nc,082ch
0809 7a        ld      a,d
080a fe05      cp      05h
080c 281e      jr      z,082ch
080e cd4508    call    0845h
0811 e5        push    hl
0812 c5        push    bc
0813 e1        pop     hl
0814 010000    ld      bc,0000h
0817 7b        ld      a,e
0818 d630      sub     30h
081a 4f        ld      c,a
081b 09        add     hl,bc
081c dc2608    call    c,0826h
081f e5        push    hl
0820 c1        pop     bc
0821 e1        pop     hl
0822 14        inc     d
0823 23        inc     hl
0824 18d9      jr      07ffh
0826 ddcb00c6  set     0,(ix+00h)
082a c9        ret     

082b 00        nop     
082c 7b        ld      a,e
082d fe30      cp      30h
082f dc4008    call    c,0840h
0832 fe3a      cp      3ah
0834 d44008    call    nc,0840h
0837 dd7e00    ld      a,(ix+00h)
083a dde1      pop     ix
083c e1        pop     hl
083d cb3f      srl     a
083f c9        ret     

0840 ddcb008e  res     1,(ix+00h)
0844 c9        ret     

0845 d5        push    de
0846 e5        push    hl
0847 c5        push    bc
0848 c5        push    bc
0849 e1        pop     hl
084a d1        pop     de
084b 0603      ld      b,03h
084d cb25      sla     l
084f cb14      rl      h
0851 10fa      djnz    084dh
0853 dc2608    call    c,0826h
0856 19        add     hl,de
0857 dc2608    call    c,0826h
085a 19        add     hl,de
085b dc2608    call    c,0826h
085e e5        push    hl
085f c1        pop     bc
0860 e1        pop     hl
0861 d1        pop     de
0862 c9        ret     

0863 1eff      ld      e,0ffh
0865 0e06      ld      c,06h
0867 c30500    jp      0005h
086a fe0a      cp      0ah
086c 380a      jr      c,0878h
086e fe64      cp      64h
0870 380e      jr      c,0880h
0872 fec8      cp      0c8h
0874 381a      jr      c,0890h
0876 182c      jr      08a4h
0878 c630      add     a,30h
087a dd7700    ld      (ix+00h),a
087d dd23      inc     ix
087f c9        ret     

0880 0e30      ld      c,30h
0882 0c        inc     c
0883 d60a      sub     0ah
0885 fe0a      cp      0ah
0887 30f9      jr      nc,0882h
0889 dd7100    ld      (ix+00h),c
088c dd23      inc     ix
088e 18e8      jr      0878h
0890 dd360031  ld      (ix+00h),31h
0894 d664      sub     64h
0896 dd23      inc     ix
0898 fe0a      cp      0ah
089a 30e4      jr      nc,0880h
089c dd360030  ld      (ix+00h),30h
08a0 dd23      inc     ix
08a2 18d4      jr      0878h
08a4 dd360032  ld      (ix+00h),32h
08a8 d6c8      sub     0c8h
08aa 18ea      jr      0896h
08ac 1a        ld      a,(de)
08ad 13        inc     de
08ae b7        or      a
08af 2014      jr      nz,08c5h
08b1 dd21e208  ld      ix,08e2h
08b5 78        ld      a,b
08b6 cd6a08    call    086ah
08b9 dd360029  ld      (ix+00h),29h
08bd dd360124  ld      (ix+01h),24h
08c1 11cf08    ld      de,08cfh
08c4 c9        ret     

08c5 b8        cp      b
08c6 c8        ret     z

08c7 1a        ld      a,(de)
08c8 13        inc     de
08c9 fe24      cp      24h
08cb 20fa      jr      nz,08c7h
08cd 18dd      jr      08ach
08cf 2a2a2a    ld      hl,(2a2ah)
08d2 2055      jr      nz,0929h
08d4 6e        ld      l,(hl)
08d5 6b        ld      l,e
08d6 6e        ld      l,(hl)
08d7 6f        ld      l,a
08d8 77        ld      (hl),a
08d9 6e        ld      l,(hl)
08da 2065      jr      nz,0941h
08dc 72        ld      (hl),d
08dd 72        ld      (hl),d
08de 6f        ld      l,a
08df 72        ld      (hl),d
08e0 2028      jr      nz,090ah
08e2 3030      jr      nc,0914h
08e4 3029      jr      nc,090fh
08e6 24        inc     h
08e7 3e00      ld      a,00h
08e9 2640      ld      h,40h
08eb cd2400    call    0024h
08ee fb        ei      
08ef 3e00      ld      a,00h
08f1 c3b705    jp      05b7h
08f4 c30000    jp      0000h
08f7 00        nop     
08f8 00        nop     
08f9 00        nop     
08fa 00        nop     
08fb 00        nop     
08fc 00        nop     
08fd ff        rst     38h
08fe ff        rst     38h
08ff 00        nop     
0900 00        nop     
0901 00        nop     
0902 ff        rst     38h
0903 00        nop     
0904 010054    ld      bc,5400h
0907 43        ld      b,e
0908 50        ld      d,b
0909 2043      jr      nz,094eh
090b 6f        ld      l,a
090c 6e        ld      l,(hl)
090d 73        ld      (hl),e
090e 6f        ld      l,a
090f 6c        ld      l,h
0910 65        ld      h,l
0911 2028      jr      nz,093bh
0913 73        ld      (hl),e
0914 69        ld      l,c
0915 6d        ld      l,l
0916 70        ld      (hl),b
0917 6c        ld      l,h
0918 69        ld      l,c
0919 66        ld      h,(hl)
091a 69        ld      l,c
091b 65        ld      h,l
091c 64        ld      h,h
091d 2054      jr      nz,0973h
091f 65        ld      h,l
0920 6c        ld      l,h
0921 6e        ld      l,(hl)
0922 65        ld      h,l
0923 74        ld      (hl),h
0924 2063      jr      nz,0989h
0926 6c        ld      l,h
0927 69        ld      l,c
0928 65        ld      h,l
0929 6e        ld      l,(hl)
092a 74        ld      (hl),h
092b 29        add     hl,hl
092c 2066      jr      nz,0994h
092e 6f        ld      l,a
092f 72        ld      (hl),d
0930 2074      jr      nz,09a6h
0932 68        ld      l,b
0933 65        ld      h,l
0934 2054      jr      nz,098ah
0936 43        ld      b,e
0937 50        ld      d,b
0938 2f        cpl     
0939 49        ld      c,c
093a 50        ld      d,b
093b 2055      jr      nz,0992h
093d 4e        ld      c,(hl)
093e 41        ld      b,c
093f 50        ld      d,b
0940 49        ld      c,c
0941 2031      jr      nz,0974h
0943 2e30      ld      l,30h
0945 0d        dec     c
0946 0a        ld      a,(bc)
0947 42        ld      b,d
0948 79        ld      a,c
0949 204b      jr      nz,0996h
094b 6f        ld      l,a
094c 6e        ld      l,(hl)
094d 61        ld      h,c
094e 6d        ld      l,l
094f 69        ld      l,c
0950 6d        ld      l,l
0951 61        ld      h,c
0952 6e        ld      l,(hl)
0953 2c        inc     l
0954 2033      jr      nz,0989h
0956 2d        dec     l
0957 323031    ld      (3130h),a
095a 300d      jr      nc,0969h
095c 0a        ld      a,(bc)
095d 0a        ld      a,(bc)
095e 24        inc     h
095f 55        ld      d,l
0960 73        ld      (hl),e
0961 61        ld      h,c
0962 67        ld      h,a
0963 65        ld      h,l
0964 3a2054    ld      a,(5420h)
0967 43        ld      b,e
0968 50        ld      d,b
0969 43        ld      b,e
096a 4f        ld      c,a
096b 4e        ld      c,(hl)
096c 203c      jr      nz,09aah
096e 68        ld      l,b
096f 6f        ld      l,a
0970 73        ld      (hl),e
0971 74        ld      (hl),h
0972 206e      jr      nz,09e2h
0974 61        ld      h,c
0975 6d        ld      l,l
0976 65        ld      h,l
0977 3e7c      ld      a,7ch
0979 3c        inc     a
097a 72        ld      (hl),d
097b 65        ld      h,l
097c 6d        ld      l,l
097d 6f        ld      l,a
097e 74        ld      (hl),h
097f 65        ld      h,l
0980 2049      jr      nz,09cbh
0982 50        ld      d,b
0983 2061      jr      nz,09e6h
0985 64        ld      h,h
0986 64        ld      h,h
0987 72        ld      (hl),d
0988 65        ld      h,l
0989 73        ld      (hl),e
098a 73        ld      (hl),e
098b 3e20      ld      a,20h
098d 3c        inc     a
098e 72        ld      (hl),d
098f 65        ld      h,l
0990 6d        ld      l,l
0991 6f        ld      l,a
0992 74        ld      (hl),h
0993 65        ld      h,l
0994 2070      jr      nz,0a06h
0996 6f        ld      l,a
0997 72        ld      (hl),d
0998 74        ld      (hl),h
0999 3e20      ld      a,20h
099b 5b        ld      e,e
099c 3c        inc     a
099d 6c        ld      l,h
099e 6f        ld      l,a
099f 63        ld      h,e
09a0 61        ld      h,c
09a1 6c        ld      l,h
09a2 2070      jr      nz,0a14h
09a4 6f        ld      l,a
09a5 72        ld      (hl),d
09a6 74        ld      (hl),h
09a7 3e5d      ld      a,5dh
09a9 205b      jr      nz,0a06h
09ab 50        ld      d,b
09ac 5d        ld      e,l
09ad 0d        dec     c
09ae 0a        ld      a,(bc)
09af 0a        ld      a,(bc)
09b0 2020      jr      nz,09d2h
09b2 2020      jr      nz,09d4h
09b4 2020      jr      nz,09d6h
09b6 203c      jr      nz,09f4h
09b8 68        ld      l,b
09b9 6f        ld      l,a
09ba 73        ld      (hl),e
09bb 74        ld      (hl),h
09bc 206e      jr      nz,0a2ch
09be 61        ld      h,c
09bf 6d        ld      l,l
09c0 65        ld      h,l
09c1 3e20      ld      a,20h
09c3 63        ld      h,e
09c4 61        ld      h,c
09c5 6e        ld      l,(hl)
09c6 2062      jr      nz,0a2ah
09c8 65        ld      h,l
09c9 2030      jr      nz,09fbh
09cb 2e30      ld      l,30h
09cd 2e30      ld      l,30h
09cf 2e30      ld      l,30h
09d1 2074      jr      nz,0a47h
09d3 6f        ld      l,a
09d4 2061      jr      nz,0a37h
09d6 63        ld      h,e
09d7 63        ld      h,e
09d8 65        ld      h,l
09d9 70        ld      (hl),b
09da 74        ld      (hl),h
09db 2061      jr      nz,0a3eh
09dd 2063      jr      nz,0a42h
09df 6f        ld      l,a
09e0 6e        ld      l,(hl)
09e1 6e        ld      l,(hl)
09e2 65        ld      h,l
09e3 63        ld      h,e
09e4 74        ld      (hl),h
09e5 69        ld      l,c
09e6 6f        ld      l,a
09e7 6e        ld      l,(hl)
09e8 2066      jr      nz,0a50h
09ea 72        ld      (hl),d
09eb 6f        ld      l,a
09ec 6d        ld      l,l
09ed 2061      jr      nz,0a50h
09ef 6e        ld      l,(hl)
09f0 79        ld      a,c
09f1 2068      jr      nz,0a5bh
09f3 6f        ld      l,a
09f4 73        ld      (hl),e
09f5 74        ld      (hl),h
09f6 0d        dec     c
09f7 0a        ld      a,(bc)
09f8 2020      jr      nz,0a1ah
09fa 2020      jr      nz,0a1ch
09fc 2020      jr      nz,0a1eh
09fe 2020      jr      nz,0a20h
0a00 2020      jr      nz,0a22h
0a02 2020      jr      nz,0a24h
0a04 2020      jr      nz,0a26h
0a06 2020      jr      nz,0a28h
0a08 2020      jr      nz,0a2ah
0a0a 2028      jr      nz,0a34h
0a0c 6f        ld      l,a
0a0d 6e        ld      l,(hl)
0a0e 6c        ld      l,h
0a0f 79        ld      a,c
0a10 2066      jr      nz,0a78h
0a12 6f        ld      l,a
0a13 72        ld      (hl),d
0a14 2070      jr      nz,0a86h
0a16 61        ld      h,c
0a17 73        ld      (hl),e
0a18 73        ld      (hl),e
0a19 69        ld      l,c
0a1a 76        halt    
0a1b 65        ld      h,l
0a1c 2063      jr      nz,0a81h
0a1e 6f        ld      l,a
0a1f 6e        ld      l,(hl)
0a20 6e        ld      l,(hl)
0a21 65        ld      h,l
0a22 63        ld      h,e
0a23 74        ld      (hl),h
0a24 69        ld      l,c
0a25 6f        ld      l,a
0a26 6e        ld      l,(hl)
0a27 73        ld      (hl),e
0a28 29        add     hl,hl
0a29 0d        dec     c
0a2a 0a        ld      a,(bc)
0a2b 2020      jr      nz,0a4dh
0a2d 2020      jr      nz,0a4fh
0a2f 2020      jr      nz,0a51h
0a31 203c      jr      nz,0a6fh
0a33 6c        ld      l,h
0a34 6f        ld      l,a
0a35 63        ld      h,e
0a36 61        ld      h,c
0a37 6c        ld      l,h
0a38 2070      jr      nz,0aaah
0a3a 6f        ld      l,a
0a3b 72        ld      (hl),d
0a3c 74        ld      (hl),h
0a3d 3e3a      ld      a,3ah
0a3f 2069      jr      nz,0aaah
0a41 66        ld      h,(hl)
0a42 206e      jr      nz,0ab2h
0a44 6f        ld      l,a
0a45 74        ld      (hl),h
0a46 2073      jr      nz,0abbh
0a48 70        ld      (hl),b
0a49 65        ld      h,l
0a4a 63        ld      h,e
0a4b 69        ld      l,c
0a4c 66        ld      h,(hl)
0a4d 69        ld      l,c
0a4e 65        ld      h,l
0a4f 64        ld      h,h
0a50 2c        inc     l
0a51 2061      jr      nz,0ab4h
0a53 2072      jr      nz,0ac7h
0a55 61        ld      h,c
0a56 6e        ld      l,(hl)
0a57 64        ld      h,h
0a58 6f        ld      l,a
0a59 6d        ld      l,l
0a5a 2070      jr      nz,0acch
0a5c 6f        ld      l,a
0a5d 72        ld      (hl),d
0a5e 74        ld      (hl),h
0a5f 2077      jr      nz,0ad8h
0a61 69        ld      l,c
0a62 6c        ld      l,h
0a63 6c        ld      l,h
0a64 2062      jr      nz,0ac8h
0a66 65        ld      h,l
0a67 2073      jr      nz,0adch
0a69 65        ld      h,l
0a6a 6c        ld      l,h
0a6b 65        ld      h,l
0a6c 63        ld      h,e
0a6d 74        ld      (hl),h
0a6e 65        ld      h,l
0a6f 64        ld      h,h
0a70 0d        dec     c
0a71 0a        ld      a,(bc)
0a72 2020      jr      nz,0a94h
0a74 2020      jr      nz,0a96h
0a76 2020      jr      nz,0a98h
0a78 2050      jr      nz,0acah
0a7a 3a2055    ld      a,(5520h)
0a7d 73        ld      (hl),e
0a7e 65        ld      h,l
0a7f 2070      jr      nz,0af1h
0a81 61        ld      h,c
0a82 73        ld      (hl),e
0a83 73        ld      (hl),e
0a84 69        ld      l,c
0a85 76        halt    
0a86 65        ld      h,l
0a87 2063      jr      nz,0aech
0a89 6f        ld      l,a
0a8a 6e        ld      l,(hl)
0a8b 6e        ld      l,(hl)
0a8c 65        ld      h,l
0a8d 63        ld      h,e
0a8e 74        ld      (hl),h
0a8f 69        ld      l,c
0a90 6f        ld      l,a
0a91 6e        ld      l,(hl)
0a92 206f      jr      nz,0b03h
0a94 70        ld      (hl),b
0a95 65        ld      h,l
0a96 6e        ld      l,(hl)
0a97 0d        dec     c
0a98 0a        ld      a,(bc)
0a99 24        inc     h
0a9a 2a2a2a    ld      hl,(2a2ah)
0a9d 2049      jr      nz,0ae8h
0a9f 6e        ld      l,(hl)
0aa0 74        ld      (hl),h
0aa1 65        ld      h,l
0aa2 72        ld      (hl),d
0aa3 4e        ld      c,(hl)
0aa4 65        ld      h,l
0aa5 73        ld      (hl),e
0aa6 74        ld      (hl),h
0aa7 6f        ld      l,a
0aa8 72        ld      (hl),d
0aa9 204c      jr      nz,0af7h
0aab 69        ld      l,c
0aac 74        ld      (hl),h
0aad 65        ld      h,l
0aae 2069      jr      nz,0b19h
0ab0 73        ld      (hl),e
0ab1 206e      jr      nz,0b21h
0ab3 6f        ld      l,a
0ab4 74        ld      (hl),h
0ab5 2069      jr      nz,0b20h
0ab7 6e        ld      l,(hl)
0ab8 73        ld      (hl),e
0ab9 74        ld      (hl),h
0aba 61        ld      h,c
0abb 6c        ld      l,h
0abc 6c        ld      l,h
0abd 65        ld      h,l
0abe 64        ld      h,h
0abf 0d        dec     c
0ac0 0a        ld      a,(bc)
0ac1 24        inc     h
0ac2 2a2a2a    ld      hl,(2a2ah)
0ac5 2049      jr      nz,0b10h
0ac7 6e        ld      l,(hl)
0ac8 76        halt    
0ac9 61        ld      h,c
0aca 6c        ld      l,h
0acb 69        ld      l,c
0acc 64        ld      h,h
0acd 2070      jr      nz,0b3fh
0acf 61        ld      h,c
0ad0 72        ld      (hl),d
0ad1 61        ld      h,c
0ad2 6d        ld      l,l
0ad3 65        ld      h,l
0ad4 74        ld      (hl),h
0ad5 65        ld      h,l
0ad6 72        ld      (hl),d
0ad7 2873      jr      z,0b4ch
0ad9 29        add     hl,hl
0ada 0d        dec     c
0adb 0a        ld      a,(bc)
0adc 24        inc     h
0add 2a2a2a    ld      hl,(2a2ah)
0ae0 204d      jr      nz,0b2fh
0ae2 69        ld      l,c
0ae3 73        ld      (hl),e
0ae4 73        ld      (hl),e
0ae5 69        ld      l,c
0ae6 6e        ld      l,(hl)
0ae7 67        ld      h,a
0ae8 2070      jr      nz,0b5ah
0aea 61        ld      h,c
0aeb 72        ld      (hl),d
0aec 61        ld      h,c
0aed 6d        ld      l,l
0aee 65        ld      h,l
0aef 74        ld      (hl),h
0af0 65        ld      h,l
0af1 72        ld      (hl),d
0af2 2873      jr      z,0b67h
0af4 29        add     hl,hl
0af5 0d        dec     c
0af6 0a        ld      a,(bc)
0af7 24        inc     h
0af8 2a2a2a    ld      hl,(2a2ah)
0afb 2045      jr      nz,0b42h
0afd 52        ld      d,d
0afe 52        ld      d,d
0aff 4f        ld      c,a
0b00 52        ld      d,d
0b01 3a2024    ld      a,(2420h)
0b04 4f        ld      c,a
0b05 70        ld      (hl),b
0b06 65        ld      h,l
0b07 6e        ld      l,(hl)
0b08 69        ld      l,c
0b09 6e        ld      l,(hl)
0b0a 67        ld      h,a
0b0b 2063      jr      nz,0b70h
0b0d 6f        ld      l,a
0b0e 6e        ld      l,(hl)
0b0f 6e        ld      l,(hl)
0b10 65        ld      h,l
0b11 63        ld      h,e
0b12 74        ld      (hl),h
0b13 69        ld      l,c
0b14 6f        ld      l,a
0b15 6e        ld      l,(hl)
0b16 2028      jr      nz,0b40h
0b18 70        ld      (hl),b
0b19 72        ld      (hl),d
0b1a 65        ld      h,l
0b1b 73        ld      (hl),e
0b1c 73        ld      (hl),e
0b1d 2045      jr      nz,0b64h
0b1f 53        ld      d,e
0b20 43        ld      b,e
0b21 2074      jr      nz,0b97h
0b23 6f        ld      l,a
0b24 2063      jr      nz,0b89h
0b26 61        ld      h,c
0b27 6e        ld      l,(hl)
0b28 63        ld      h,e
0b29 65        ld      h,l
0b2a 6c        ld      l,h
0b2b 29        add     hl,hl
0b2c 2e2e      ld      l,2eh
0b2e 2e20      ld      l,20h
0b30 24        inc     h
0b31 52        ld      d,d
0b32 65        ld      h,l
0b33 73        ld      (hl),e
0b34 6f        ld      l,a
0b35 6c        ld      l,h
0b36 76        halt    
0b37 69        ld      l,c
0b38 6e        ld      l,(hl)
0b39 67        ld      h,a
0b3a 2068      jr      nz,0ba4h
0b3c 6f        ld      l,a
0b3d 73        ld      (hl),e
0b3e 74        ld      (hl),h
0b3f 206e      jr      nz,0bafh
0b41 61        ld      h,c
0b42 6d        ld      l,l
0b43 65        ld      h,l
0b44 2e2e      ld      l,2eh
0b46 2e20      ld      l,20h
0b48 24        inc     h
0b49 4f        ld      c,a
0b4a 4b        ld      c,e
0b4b 210d0a    ld      hl,0a0dh
0b4e 0a        ld      a,(bc)
0b4f 2a2a2a    ld      hl,(2a2ah)
0b52 2050      jr      nz,0ba4h
0b54 72        ld      (hl),d
0b55 65        ld      h,l
0b56 73        ld      (hl),e
0b57 73        ld      (hl),e
0b58 2046      jr      nz,0ba0h
0b5a 312066    ld      sp,6620h
0b5d 6f        ld      l,a
0b5e 72        ld      (hl),d
0b5f 2068      jr      nz,0bc9h
0b61 65        ld      h,l
0b62 6c        ld      l,h
0b63 70        ld      (hl),b
0b64 0d        dec     c
0b65 0a        ld      a,(bc)
0b66 0a        ld      a,(bc)
0b67 24        inc     h
0b68 0d        dec     c
0b69 0a        ld      a,(bc)
0b6a 2a2a2a    ld      hl,(2a2ah)
0b6d 2046      jr      nz,0bb5h
0b6f 313a20    ld      sp,203ah
0b72 53        ld      d,e
0b73 68        ld      l,b
0b74 6f        ld      l,a
0b75 77        ld      (hl),a
0b76 2074      jr      nz,0bech
0b78 68        ld      l,b
0b79 69        ld      l,c
0b7a 73        ld      (hl),e
0b7b 2068      jr      nz,0be5h
0b7d 65        ld      h,l
0b7e 6c        ld      l,h
0b7f 70        ld      (hl),b
0b80 0d        dec     c
0b81 0a        ld      a,(bc)
0b82 2a2a2a    ld      hl,(2a2ah)
0b85 2046      jr      nz,0bcdh
0b87 323a20    ld      (203ah),a
0b8a 54        ld      d,h
0b8b 6f        ld      l,a
0b8c 67        ld      h,a
0b8d 67        ld      h,a
0b8e 6c        ld      l,h
0b8f 65        ld      h,l
0b90 206c      jr      nz,0bfeh
0b92 69        ld      l,c
0b93 6e        ld      l,(hl)
0b94 65        ld      h,l
0b95 2f        cpl     
0b96 63        ld      h,e
0b97 68        ld      l,b
0b98 61        ld      h,c
0b99 72        ld      (hl),d
0b9a 61        ld      h,c
0b9b 63        ld      h,e
0b9c 74        ld      (hl),h
0b9d 65        ld      h,l
0b9e 72        ld      (hl),d
0b9f 206d      jr      nz,0c0eh
0ba1 6f        ld      l,a
0ba2 64        ld      h,h
0ba3 65        ld      h,l
0ba4 0d        dec     c
0ba5 0a        ld      a,(bc)
0ba6 2020      jr      nz,0bc8h
0ba8 2020      jr      nz,0bcah
0baa 2020      jr      nz,0bcch
0bac 2020      jr      nz,0bceh
0bae 43        ld      b,e
0baf 75        ld      (hl),l
0bb0 72        ld      (hl),d
0bb1 72        ld      (hl),d
0bb2 65        ld      h,l
0bb3 6e        ld      l,(hl)
0bb4 74        ld      (hl),h
0bb5 206d      jr      nz,0c24h
0bb7 6f        ld      l,a
0bb8 64        ld      h,h
0bb9 65        ld      h,l
0bba 2069      jr      nz,0c25h
0bbc 73        ld      (hl),e
0bbd 3a206c    ld      a,(6c20h)
0bc0 69        ld      l,c
0bc1 6e        ld      l,(hl)
0bc2 65        ld      h,l
0bc3 2020      jr      nz,0be5h
0bc5 2020      jr      nz,0be7h
0bc7 200d      jr      nz,0bd6h
0bc9 0a        ld      a,(bc)
0bca 2a2a2a    ld      hl,(2a2ah)
0bcd 2046      jr      nz,0c15h
0bcf 33        inc     sp
0bd0 3a2054    ld      a,(5420h)
0bd3 6f        ld      l,a
0bd4 67        ld      h,a
0bd5 67        ld      h,a
0bd6 6c        ld      l,h
0bd7 65        ld      h,l
0bd8 206c      jr      nz,0c46h
0bda 6f        ld      l,a
0bdb 63        ld      h,e
0bdc 61        ld      h,c
0bdd 6c        ld      l,h
0bde 2065      jr      nz,0c45h
0be0 63        ld      h,e
0be1 68        ld      l,b
0be2 6f        ld      l,a
0be3 204f      jr      nz,0c34h
0be5 4e        ld      c,(hl)
0be6 2f        cpl     
0be7 4f        ld      c,a
0be8 46        ld      b,(hl)
0be9 46        ld      b,(hl)
0bea 2028      jr      nz,0c14h
0bec 6f        ld      l,a
0bed 6e        ld      l,(hl)
0bee 6c        ld      l,h
0bef 79        ld      a,c
0bf0 206f      jr      nz,0c61h
0bf2 6e        ld      l,(hl)
0bf3 2063      jr      nz,0c58h
0bf5 68        ld      l,b
0bf6 61        ld      h,c
0bf7 72        ld      (hl),d
0bf8 61        ld      h,c
0bf9 63        ld      h,e
0bfa 74        ld      (hl),h
0bfb 65        ld      h,l
0bfc 72        ld      (hl),d
0bfd 206d      jr      nz,0c6ch
0bff 6f        ld      l,a
0c00 64        ld      h,h
0c01 65        ld      h,l
0c02 29        add     hl,hl
0c03 0d        dec     c
0c04 0a        ld      a,(bc)
0c05 2020      jr      nz,0c27h
0c07 2020      jr      nz,0c29h
0c09 2020      jr      nz,0c2bh
0c0b 2020      jr      nz,0c2dh
0c0d 43        ld      b,e
0c0e 75        ld      (hl),l
0c0f 72        ld      (hl),d
0c10 72        ld      (hl),d
0c11 65        ld      h,l
0c12 6e        ld      l,(hl)
0c13 74        ld      (hl),h
0c14 6c        ld      l,h
0c15 79        ld      a,c
0c16 206c      jr      nz,0c84h
0c18 6f        ld      l,a
0c19 63        ld      h,e
0c1a 61        ld      h,c
0c1b 6c        ld      l,h
0c1c 2065      jr      nz,0c83h
0c1e 63        ld      h,e
0c1f 68        ld      l,b
0c20 6f        ld      l,a
0c21 2069      jr      nz,0c8ch
0c23 73        ld      (hl),e
0c24 3a204f    ld      a,(4f20h)
0c27 4e        ld      c,(hl)
0c28 200d      jr      nz,0c37h
0c2a 0a        ld      a,(bc)
0c2b 2a2a2a    ld      hl,(2a2ah)
0c2e 2045      jr      nz,0c75h
0c30 53        ld      d,e
0c31 43        ld      b,e
0c32 3a2043    ld      a,(4320h)
0c35 6c        ld      l,h
0c36 6f        ld      l,a
0c37 73        ld      (hl),e
0c38 65        ld      h,l
0c39 2063      jr      nz,0c9eh
0c3b 6f        ld      l,a
0c3c 6e        ld      l,(hl)
0c3d 6e        ld      l,(hl)
0c3e 65        ld      h,l
0c3f 63        ld      h,e
0c40 74        ld      (hl),h
0c41 69        ld      l,c
0c42 6f        ld      l,a
0c43 6e        ld      l,(hl)
0c44 2061      jr      nz,0ca7h
0c46 6e        ld      l,(hl)
0c47 64        ld      h,h
0c48 2065      jr      nz,0cafh
0c4a 78        ld      a,b
0c4b 69        ld      l,c
0c4c 74        ld      (hl),h
0c4d 0d        dec     c
0c4e 0a        ld      a,(bc)
0c4f 2a2a2a    ld      hl,(2a2ah)
0c52 2043      jr      nz,0c97h
0c54 54        ld      d,h
0c55 52        ld      d,d
0c56 4c        ld      c,h
0c57 2b        dec     hl
0c58 45        ld      b,l
0c59 53        ld      d,e
0c5a 43        ld      b,e
0c5b 3a2041    ld      a,(4120h)
0c5e 62        ld      h,d
0c5f 6f        ld      l,a
0c60 72        ld      (hl),d
0c61 74        ld      (hl),h
0c62 2063      jr      nz,0cc7h
0c64 6f        ld      l,a
0c65 6e        ld      l,(hl)
0c66 6e        ld      l,(hl)
0c67 65        ld      h,l
0c68 63        ld      h,e
0c69 74        ld      (hl),h
0c6a 69        ld      l,c
0c6b 6f        ld      l,a
0c6c 6e        ld      l,(hl)
0c6d 2061      jr      nz,0cd0h
0c6f 6e        ld      l,(hl)
0c70 64        ld      h,h
0c71 2065      jr      nz,0cd8h
0c73 78        ld      a,b
0c74 69        ld      l,c
0c75 74        ld      (hl),h
0c76 0d        dec     c
0c77 0a        ld      a,(bc)
0c78 2a2a2a    ld      hl,(2a2ah)
0c7b 2054      jr      nz,0cd1h
0c7d 79        ld      a,c
0c7e 70        ld      (hl),b
0c7f 65        ld      h,l
0c80 2074      jr      nz,0cf6h
0c82 68        ld      l,b
0c83 65        ld      h,l
0c84 2074      jr      nz,0cfah
0c86 65        ld      h,l
0c87 78        ld      a,b
0c88 74        ld      (hl),h
0c89 2074      jr      nz,0cffh
0c8b 6f        ld      l,a
0c8c 2062      jr      nz,0cf0h
0c8e 65        ld      h,l
0c8f 2073      jr      nz,0d04h
0c91 65        ld      h,l
0c92 6e        ld      l,(hl)
0c93 74        ld      (hl),h
0c94 2074      jr      nz,0d0ah
0c96 6f        ld      l,a
0c97 2074      jr      nz,0d0dh
0c99 68        ld      l,b
0c9a 65        ld      h,l
0c9b 206f      jr      nz,0d0ch
0c9d 74        ld      (hl),h
0c9e 68        ld      l,b
0c9f 65        ld      h,l
0ca0 72        ld      (hl),d
0ca1 2073      jr      nz,0d16h
0ca3 69        ld      l,c
0ca4 64        ld      h,h
0ca5 65        ld      h,l
0ca6 2e0d      ld      l,0dh
0ca8 0a        ld      a,(bc)
0ca9 2020      jr      nz,0ccbh
0cab 2020      jr      nz,0ccdh
0cad 49        ld      c,c
0cae 6e        ld      l,(hl)
0caf 206c      jr      nz,0d1dh
0cb1 69        ld      l,c
0cb2 6e        ld      l,(hl)
0cb3 65        ld      h,l
0cb4 206d      jr      nz,0d23h
0cb6 6f        ld      l,a
0cb7 64        ld      h,h
0cb8 65        ld      h,l
0cb9 2c        inc     l
0cba 2074      jr      nz,0d30h
0cbc 68        ld      l,b
0cbd 65        ld      h,l
0cbe 206c      jr      nz,0d2ch
0cc0 69        ld      l,c
0cc1 6e        ld      l,(hl)
0cc2 65        ld      h,l
0cc3 2074      jr      nz,0d39h
0cc5 65        ld      h,l
0cc6 78        ld      a,b
0cc7 74        ld      (hl),h
0cc8 2077      jr      nz,0d41h
0cca 69        ld      l,c
0ccb 6c        ld      l,h
0ccc 6c        ld      l,h
0ccd 2062      jr      nz,0d31h
0ccf 65        ld      h,l
0cd0 2073      jr      nz,0d45h
0cd2 65        ld      h,l
0cd3 6e        ld      l,(hl)
0cd4 74        ld      (hl),h
0cd5 2077      jr      nz,0d4eh
0cd7 68        ld      l,b
0cd8 65        ld      h,l
0cd9 6e        ld      l,(hl)
0cda 2070      jr      nz,0d4ch
0cdc 72        ld      (hl),d
0cdd 65        ld      h,l
0cde 73        ld      (hl),e
0cdf 73        ld      (hl),e
0ce0 69        ld      l,c
0ce1 6e        ld      l,(hl)
0ce2 67        ld      h,a
0ce3 2045      jr      nz,0d2ah
0ce5 4e        ld      c,(hl)
0ce6 54        ld      d,h
0ce7 45        ld      b,l
0ce8 52        ld      d,d
0ce9 2e0d      ld      l,0dh
0ceb 0a        ld      a,(bc)
0cec 2020      jr      nz,0d0eh
0cee 2020      jr      nz,0d10h
0cf0 49        ld      c,c
0cf1 6e        ld      l,(hl)
0cf2 2063      jr      nz,0d57h
0cf4 68        ld      l,b
0cf5 61        ld      h,c
0cf6 72        ld      (hl),d
0cf7 61        ld      h,c
0cf8 63        ld      h,e
0cf9 74        ld      (hl),h
0cfa 65        ld      h,l
0cfb 72        ld      (hl),d
0cfc 206d      jr      nz,0d6bh
0cfe 6f        ld      l,a
0cff 64        ld      h,h
0d00 65        ld      h,l
0d01 2c        inc     l
0d02 2065      jr      nz,0d69h
0d04 61        ld      h,c
0d05 63        ld      h,e
0d06 68        ld      l,b
0d07 2074      jr      nz,0d7dh
0d09 79        ld      a,c
0d0a 70        ld      (hl),b
0d0b 65        ld      h,l
0d0c 64        ld      h,h
0d0d 2063      jr      nz,0d72h
0d0f 68        ld      l,b
0d10 61        ld      h,c
0d11 72        ld      (hl),d
0d12 61        ld      h,c
0d13 63        ld      h,e
0d14 74        ld      (hl),h
0d15 65        ld      h,l
0d16 72        ld      (hl),d
0d17 2077      jr      nz,0d90h
0d19 69        ld      l,c
0d1a 6c        ld      l,h
0d1b 6c        ld      l,h
0d1c 2062      jr      nz,0d80h
0d1e 65        ld      h,l
0d1f 2073      jr      nz,0d94h
0d21 65        ld      h,l
0d22 6e        ld      l,(hl)
0d23 74        ld      (hl),h
0d24 2069      jr      nz,0d8fh
0d26 6d        ld      l,l
0d27 6d        ld      l,l
0d28 65        ld      h,l
0d29 64        ld      h,h
0d2a 69        ld      l,c
0d2b 61        ld      h,c
0d2c 74        ld      (hl),h
0d2d 65        ld      h,l
0d2e 6c        ld      l,h
0d2f 79        ld      a,c
0d30 2e0d      ld      l,0dh
0d32 0a        ld      a,(bc)
0d33 2020      jr      nz,0d55h
0d35 2020      jr      nz,0d57h
0d37 49        ld      c,c
0d38 6e        ld      l,(hl)
0d39 63        ld      h,e
0d3a 6f        ld      l,a
0d3b 6d        ld      l,l
0d3c 69        ld      l,c
0d3d 6e        ld      l,(hl)
0d3e 67        ld      h,a
0d3f 2064      jr      nz,0da5h
0d41 61        ld      h,c
0d42 74        ld      (hl),h
0d43 61        ld      h,c
0d44 2077      jr      nz,0dbdh
0d46 69        ld      l,c
0d47 6c        ld      l,h
0d48 6c        ld      l,h
0d49 2062      jr      nz,0dadh
0d4b 65        ld      h,l
0d4c 2070      jr      nz,0dbeh
0d4e 72        ld      (hl),d
0d4f 69        ld      l,c
0d50 6e        ld      l,(hl)
0d51 74        ld      (hl),h
0d52 65        ld      h,l
0d53 64        ld      h,h
0d54 206f      jr      nz,0dc5h
0d56 75        ld      (hl),l
0d57 74        ld      (hl),h
0d58 2074      jr      nz,0dceh
0d5a 6f        ld      l,a
0d5b 2074      jr      nz,0dd1h
0d5d 68        ld      l,b
0d5e 65        ld      h,l
0d5f 2073      jr      nz,0dd4h
0d61 63        ld      h,e
0d62 72        ld      (hl),d
0d63 65        ld      h,l
0d64 65        ld      h,l
0d65 6e        ld      l,(hl)
0d66 2e0d      ld      l,0dh
0d68 0a        ld      a,(bc)
0d69 0a        ld      a,(bc)
0d6a 24        inc     h
0d6b 0d        dec     c
0d6c 0a        ld      a,(bc)
0d6d 2a2a2a    ld      hl,(2a2ah)
0d70 2049      jr      nz,0dbbh
0d72 6e        ld      l,(hl)
0d73 70        ld      (hl),b
0d74 75        ld      (hl),l
0d75 74        ld      (hl),h
0d76 206d      jr      nz,0de5h
0d78 6f        ld      l,a
0d79 64        ld      h,h
0d7a 65        ld      h,l
0d7b 2074      jr      nz,0df1h
0d7d 6f        ld      l,a
0d7e 67        ld      h,a
0d7f 67        ld      h,a
0d80 6c        ld      l,h
0d81 65        ld      h,l
0d82 64        ld      h,h
0d83 2074      jr      nz,0df9h
0d85 6f        ld      l,a
0d86 206c      jr      nz,0df4h
0d88 69        ld      l,c
0d89 6e        ld      l,(hl)
0d8a 65        ld      h,l
0d8b 206d      jr      nz,0dfah
0d8d 6f        ld      l,a
0d8e 64        ld      h,h
0d8f 65        ld      h,l
0d90 0d        dec     c
0d91 0a        ld      a,(bc)
0d92 24        inc     h
0d93 0d        dec     c
0d94 0a        ld      a,(bc)
0d95 2a2a2a    ld      hl,(2a2ah)
0d98 2049      jr      nz,0de3h
0d9a 6e        ld      l,(hl)
0d9b 70        ld      (hl),b
0d9c 75        ld      (hl),l
0d9d 74        ld      (hl),h
0d9e 206d      jr      nz,0e0dh
0da0 6f        ld      l,a
0da1 64        ld      h,h
0da2 65        ld      h,l
0da3 2074      jr      nz,0e19h
0da5 6f        ld      l,a
0da6 67        ld      h,a
0da7 67        ld      h,a
0da8 6c        ld      l,h
0da9 65        ld      h,l
0daa 64        ld      h,h
0dab 2074      jr      nz,0e21h
0dad 6f        ld      l,a
0dae 2063      jr      nz,0e13h
0db0 68        ld      l,b
0db1 61        ld      h,c
0db2 72        ld      (hl),d
0db3 61        ld      h,c
0db4 63        ld      h,e
0db5 74        ld      (hl),h
0db6 65        ld      h,l
0db7 72        ld      (hl),d
0db8 206d      jr      nz,0e27h
0dba 6f        ld      l,a
0dbb 64        ld      h,h
0dbc 65        ld      h,l
0dbd 0d        dec     c
0dbe 0a        ld      a,(bc)
0dbf 24        inc     h
0dc0 0d        dec     c
0dc1 0a        ld      a,(bc)
0dc2 2a2a2a    ld      hl,(2a2ah)
0dc5 204c      jr      nz,0e13h
0dc7 6f        ld      l,a
0dc8 63        ld      h,e
0dc9 61        ld      h,c
0dca 6c        ld      l,h
0dcb 2065      jr      nz,0e32h
0dcd 63        ld      h,e
0dce 68        ld      l,b
0dcf 6f        ld      l,a
0dd0 2074      jr      nz,0e46h
0dd2 6f        ld      l,a
0dd3 67        ld      h,a
0dd4 67        ld      h,a
0dd5 6c        ld      l,h
0dd6 65        ld      h,l
0dd7 64        ld      h,h
0dd8 204f      jr      nz,0e29h
0dda 4e        ld      c,(hl)
0ddb 0d        dec     c
0ddc 0a        ld      a,(bc)
0ddd 24        inc     h
0dde 0d        dec     c
0ddf 0a        ld      a,(bc)
0de0 2a2a2a    ld      hl,(2a2ah)
0de3 204c      jr      nz,0e31h
0de5 6f        ld      l,a
0de6 63        ld      h,e
0de7 61        ld      h,c
0de8 6c        ld      l,h
0de9 2065      jr      nz,0e50h
0deb 63        ld      h,e
0dec 68        ld      l,b
0ded 6f        ld      l,a
0dee 2074      jr      nz,0e64h
0df0 6f        ld      l,a
0df1 67        ld      h,a
0df2 67        ld      h,a
0df3 6c        ld      l,h
0df4 65        ld      h,l
0df5 64        ld      h,h
0df6 204f      jr      nz,0e47h
0df8 46        ld      b,(hl)
0df9 46        ld      b,(hl)
0dfa 0d        dec     c
0dfb 0a        ld      a,(bc)
0dfc 24        inc     h
0dfd 0d        dec     c
0dfe 0a        ld      a,(bc)
0dff 2a2a2a    ld      hl,(2a2ah)
0e02 2043      jr      nz,0e47h
0e04 6f        ld      l,a
0e05 6e        ld      l,(hl)
0e06 6e        ld      l,(hl)
0e07 65        ld      h,l
0e08 63        ld      h,e
0e09 74        ld      (hl),h
0e0a 69        ld      l,c
0e0b 6f        ld      l,a
0e0c 6e        ld      l,(hl)
0e0d 2063      jr      nz,0e72h
0e0f 6c        ld      l,h
0e10 6f        ld      l,a
0e11 73        ld      (hl),e
0e12 65        ld      h,l
0e13 64        ld      h,h
0e14 2062      jr      nz,0e78h
0e16 79        ld      a,c
0e17 2075      jr      nz,0e8eh
0e19 73        ld      (hl),e
0e1a 65        ld      h,l
0e1b 72        ld      (hl),d
0e1c 0d        dec     c
0e1d 0a        ld      a,(bc)
0e1e 24        inc     h
0e1f 0d        dec     c
0e20 0a        ld      a,(bc)
0e21 2a2a2a    ld      hl,(2a2ah)
0e24 2043      jr      nz,0e69h
0e26 6f        ld      l,a
0e27 6e        ld      l,(hl)
0e28 6e        ld      l,(hl)
0e29 65        ld      h,l
0e2a 63        ld      h,e
0e2b 74        ld      (hl),h
0e2c 69        ld      l,c
0e2d 6f        ld      l,a
0e2e 6e        ld      l,(hl)
0e2f 2061      jr      nz,0e92h
0e31 62        ld      h,d
0e32 6f        ld      l,a
0e33 72        ld      (hl),d
0e34 74        ld      (hl),h
0e35 65        ld      h,l
0e36 64        ld      h,h
0e37 2062      jr      nz,0e9bh
0e39 79        ld      a,c
0e3a 2075      jr      nz,0eb1h
0e3c 73        ld      (hl),e
0e3d 65        ld      h,l
0e3e 72        ld      (hl),d
0e3f 0d        dec     c
0e40 0a        ld      a,(bc)
0e41 24        inc     h
0e42 6c        ld      l,h
0e43 69        ld      l,c
0e44 6e        ld      l,(hl)
0e45 65        ld      h,l
0e46 2020      jr      nz,0e68h
0e48 2020      jr      nz,0e6ah
0e4a 2063      jr      nz,0eafh
0e4c 68        ld      l,b
0e4d 61        ld      h,c
0e4e 72        ld      (hl),d
0e4f 61        ld      h,c
0e50 63        ld      h,e
0e51 74        ld      (hl),h
0e52 65        ld      h,l
0e53 72        ld      (hl),d
0e54 4f        ld      c,a
0e55 4e        ld      c,(hl)
0e56 204f      jr      nz,0ea7h
0e58 46        ld      b,(hl)
0e59 46        ld      b,(hl)
0e5a 2a2a2a    ld      hl,(2a2ah)
0e5d 2024      jr      nz,0e83h
0e5f 0d        dec     c
0e60 0a        ld      a,(bc)
0e61 45        ld      b,l
0e62 52        ld      d,d
0e63 52        ld      d,d
0e64 4f        ld      c,a
0e65 52        ld      d,d
0e66 2000      jr      nz,0e68h
0e68 00        nop     
0e69 00        nop     
0e6a 00        nop     
0e6b 00        nop     
0e6c 00        nop     
0e6d 4f        ld      c,a
0e6e 4b        ld      c,e
0e6f 3a2000    ld      a,(0020h)
0e72 00        nop     
0e73 00        nop     
0e74 00        nop     
0e75 00        nop     
0e76 00        nop     
0e77 00        nop     
0e78 00        nop     
0e79 00        nop     
0e7a 00        nop     
0e7b 00        nop     
0e7c 00        nop     
0e7d 00        nop     
0e7e 00        nop     
0e7f 00        nop     
0e80 00        nop     
0e81 0d        dec     c
0e82 0a        ld      a,(bc)
0e83 0d        dec     c
0e84 0a        ld      a,(bc)
0e85 24        inc     h
0e86 02        ld      (bc),a
0e87 4e        ld      c,(hl)
0e88 6f        ld      l,a
0e89 206e      jr      nz,0ef9h
0e8b 65        ld      h,l
0e8c 74        ld      (hl),h
0e8d 77        ld      (hl),a
0e8e 6f        ld      l,a
0e8f 72        ld      (hl),d
0e90 6b        ld      l,e
0e91 2063      jr      nz,0ef6h
0e93 6f        ld      l,a
0e94 6e        ld      l,(hl)
0e95 6e        ld      l,(hl)
0e96 65        ld      h,l
0e97 63        ld      h,e
0e98 74        ld      (hl),h
0e99 69        ld      l,c
0e9a 6f        ld      l,a
0e9b 6e        ld      l,(hl)
0e9c 24        inc     h
0e9d 07        rlca    
0e9e 4e        ld      c,(hl)
0e9f 6f        ld      l,a
0ea0 2044      jr      nz,0ee6h
0ea2 4e        ld      c,(hl)
0ea3 53        ld      d,e
0ea4 2073      jr      nz,0f19h
0ea6 65        ld      h,l
0ea7 72        ld      (hl),d
0ea8 76        halt    
0ea9 65        ld      h,l
0eaa 72        ld      (hl),d
0eab 73        ld      (hl),e
0eac 2061      jr      nz,0f0fh
0eae 76        halt    
0eaf 61        ld      h,c
0eb0 69        ld      l,c
0eb1 6c        ld      l,h
0eb2 61        ld      h,c
0eb3 62        ld      h,d
0eb4 6c        ld      l,h
0eb5 65        ld      h,l
0eb6 24        inc     h
0eb7 015468    ld      bc,6854h
0eba 69        ld      l,c
0ebb 73        ld      (hl),e
0ebc 2054      jr      nz,0f12h
0ebe 43        ld      b,e
0ebf 50        ld      d,b
0ec0 2f        cpl     
0ec1 49        ld      c,c
0ec2 50        ld      d,b
0ec3 2055      jr      nz,0f1ah
0ec5 4e        ld      c,(hl)
0ec6 41        ld      b,c
0ec7 50        ld      d,b
0ec8 49        ld      c,c
0ec9 2069      jr      nz,0f34h
0ecb 6d        ld      l,l
0ecc 70        ld      (hl),b
0ecd 6c        ld      l,h
0ece 65        ld      h,l
0ecf 6d        ld      l,l
0ed0 65        ld      h,l
0ed1 6e        ld      l,(hl)
0ed2 74        ld      (hl),h
0ed3 61        ld      h,c
0ed4 74        ld      (hl),h
0ed5 69        ld      l,c
0ed6 6f        ld      l,a
0ed7 6e        ld      l,(hl)
0ed8 2064      jr      nz,0f3eh
0eda 6f        ld      l,a
0edb 65        ld      h,l
0edc 73        ld      (hl),e
0edd 206e      jr      nz,0f4dh
0edf 6f        ld      l,a
0ee0 74        ld      (hl),h
0ee1 2073      jr      nz,0f56h
0ee3 75        ld      (hl),l
0ee4 70        ld      (hl),b
0ee5 70        ld      (hl),b
0ee6 6f        ld      l,a
0ee7 72        ld      (hl),d
0ee8 74        ld      (hl),h
0ee9 206e      jr      nz,0f59h
0eeb 61        ld      h,c
0eec 6d        ld      l,l
0eed 65        ld      h,l
0eee 2072      jr      nz,0f62h
0ef0 65        ld      h,l
0ef1 73        ld      (hl),e
0ef2 6f        ld      l,a
0ef3 6c        ld      l,h
0ef4 75        ld      (hl),l
0ef5 74        ld      (hl),h
0ef6 69        ld      l,c
0ef7 6f        ld      l,a
0ef8 6e        ld      l,(hl)
0ef9 2e0d      ld      l,0dh
0efb 0a        ld      a,(bc)
0efc 41        ld      b,c
0efd 6e        ld      l,(hl)
0efe 2049      jr      nz,0f49h
0f00 50        ld      d,b
0f01 2061      jr      nz,0f64h
0f03 64        ld      h,h
0f04 64        ld      h,h
0f05 72        ld      (hl),d
0f06 65        ld      h,l
0f07 73        ld      (hl),e
0f08 73        ld      (hl),e
0f09 206d      jr      nz,0f78h
0f0b 75        ld      (hl),l
0f0c 73        ld      (hl),e
0f0d 74        ld      (hl),h
0f0e 2062      jr      nz,0f72h
0f10 65        ld      h,l
0f11 2073      jr      nz,0f86h
0f13 70        ld      (hl),b
0f14 65        ld      h,l
0f15 63        ld      h,e
0f16 69        ld      l,c
0f17 66        ld      h,(hl)
0f18 69        ld      l,c
0f19 65        ld      h,l
0f1a 64        ld      h,h
0f1b 2069      jr      nz,0f86h
0f1d 6e        ld      l,(hl)
0f1e 73        ld      (hl),e
0f1f 74        ld      (hl),h
0f20 65        ld      h,l
0f21 61        ld      h,c
0f22 64        ld      h,h
0f23 2e24      ld      l,24h
0f25 00        nop     
0f26 015175    ld      bc,7551h
0f29 65        ld      h,l
0f2a 72        ld      (hl),d
0f2b 79        ld      a,c
0f2c 2066      jr      nz,0f94h
0f2e 6f        ld      l,a
0f2f 72        ld      (hl),d
0f30 6d        ld      l,l
0f31 61        ld      h,c
0f32 74        ld      (hl),h
0f33 2065      jr      nz,0f9ah
0f35 72        ld      (hl),d
0f36 72        ld      (hl),d
0f37 6f        ld      l,a
0f38 72        ld      (hl),d
0f39 24        inc     h
0f3a 02        ld      (bc),a
0f3b 53        ld      d,e
0f3c 65        ld      h,l
0f3d 72        ld      (hl),d
0f3e 76        halt    
0f3f 65        ld      h,l
0f40 72        ld      (hl),d
0f41 2066      jr      nz,0fa9h
0f43 61        ld      h,c
0f44 69        ld      l,c
0f45 6c        ld      l,h
0f46 75        ld      (hl),l
0f47 72        ld      (hl),d
0f48 65        ld      h,l
0f49 24        inc     h
0f4a 03        inc     bc
0f4b 4e        ld      c,(hl)
0f4c 61        ld      h,c
0f4d 6d        ld      l,l
0f4e 65        ld      h,l
0f4f 2065      jr      nz,0fb6h
0f51 72        ld      (hl),d
0f52 72        ld      (hl),d
0f53 6f        ld      l,a
0f54 72        ld      (hl),d
0f55 2028      jr      nz,0f7fh
0f57 74        ld      (hl),h
0f58 68        ld      l,b
0f59 69        ld      l,c
0f5a 73        ld      (hl),e
0f5b 2068      jr      nz,0fc5h
0f5d 6f        ld      l,a
0f5e 73        ld      (hl),e
0f5f 74        ld      (hl),h
0f60 206e      jr      nz,0fd0h
0f62 61        ld      h,c
0f63 6d        ld      l,l
0f64 65        ld      h,l
0f65 2064      jr      nz,0fcbh
0f67 6f        ld      l,a
0f68 65        ld      h,l
0f69 73        ld      (hl),e
0f6a 206e      jr      nz,0fdah
0f6c 6f        ld      l,a
0f6d 74        ld      (hl),h
0f6e 2065      jr      nz,0fd5h
0f70 78        ld      a,b
0f71 69        ld      l,c
0f72 73        ld      (hl),e
0f73 74        ld      (hl),h
0f74 29        add     hl,hl
0f75 24        inc     h
0f76 04        inc     b
0f77 51        ld      d,c
0f78 75        ld      (hl),l
0f79 65        ld      h,l
0f7a 72        ld      (hl),d
0f7b 79        ld      a,c
0f7c 2074      jr      nz,0ff2h
0f7e 79        ld      a,c
0f7f 70        ld      (hl),b
0f80 65        ld      h,l
0f81 206e      jr      nz,0ff1h
0f83 6f        ld      l,a
0f84 74        ld      (hl),h
0f85 2069      jr      nz,0ff0h
0f87 6d        ld      l,l
0f88 70        ld      (hl),b
0f89 6c        ld      l,h
0f8a 65        ld      h,l
0f8b 6d        ld      l,l
0f8c 65        ld      h,l
0f8d 6e        ld      l,(hl)
0f8e 74        ld      (hl),h
0f8f 65        ld      h,l
0f90 64        ld      h,h
0f91 2062      jr      nz,0ff5h
0f93 79        ld      a,c
0f94 2074      jr      nz,100ah
0f96 68        ld      l,b
0f97 65        ld      h,l
0f98 2073      jr      nz,100dh
0f9a 65        ld      h,l
0f9b 72        ld      (hl),d
0f9c 76        halt    
0f9d 65        ld      h,l
0f9e 72        ld      (hl),d
0f9f 24        inc     h
0fa0 05        dec     b
0fa1 51        ld      d,c
0fa2 75        ld      (hl),l
0fa3 65        ld      h,l
0fa4 72        ld      (hl),d
0fa5 79        ld      a,c
0fa6 2072      jr      nz,101ah
0fa8 65        ld      h,l
0fa9 66        ld      h,(hl)
0faa 75        ld      (hl),l
0fab 73        ld      (hl),e
0fac 65        ld      h,l
0fad 64        ld      h,h
0fae 2062      jr      nz,1012h
0fb0 79        ld      a,c
0fb1 2074      jr      nz,1027h
0fb3 68        ld      l,b
0fb4 65        ld      h,l
0fb5 2073      jr      nz,102ah
0fb7 65        ld      h,l
0fb8 72        ld      (hl),d
0fb9 76        halt    
0fba 65        ld      h,l
0fbb 72        ld      (hl),d
0fbc 24        inc     h
0fbd 0644      ld      b,44h
0fbf 4e        ld      c,(hl)
0fc0 53        ld      d,e
0fc1 2065      jr      nz,1028h
0fc3 72        ld      (hl),d
0fc4 72        ld      (hl),d
0fc5 6f        ld      l,a
0fc6 72        ld      (hl),d
0fc7 2036      jr      nz,0fffh
0fc9 24        inc     h
0fca 07        rlca    
0fcb 44        ld      b,h
0fcc 4e        ld      c,(hl)
0fcd 53        ld      d,e
0fce 2065      jr      nz,1035h
0fd0 72        ld      (hl),d
0fd1 72        ld      (hl),d
0fd2 6f        ld      l,a
0fd3 72        ld      (hl),d
0fd4 2037      jr      nz,100dh
0fd6 24        inc     h
0fd7 08        ex      af,af'
0fd8 44        ld      b,h
0fd9 4e        ld      c,(hl)
0fda 53        ld      d,e
0fdb 2065      jr      nz,1042h
0fdd 72        ld      (hl),d
0fde 72        ld      (hl),d
0fdf 6f        ld      l,a
0fe0 72        ld      (hl),d
0fe1 2038      jr      nz,101bh
0fe3 24        inc     h
0fe4 09        add     hl,bc
0fe5 44        ld      b,h
0fe6 4e        ld      c,(hl)
0fe7 53        ld      d,e
0fe8 2065      jr      nz,104fh
0fea 72        ld      (hl),d
0feb 72        ld      (hl),d
0fec 6f        ld      l,a
0fed 72        ld      (hl),d
0fee 2039      jr      nz,1029h
0ff0 24        inc     h
0ff1 0a        ld      a,(bc)
0ff2 44        ld      b,h
0ff3 4e        ld      c,(hl)
0ff4 53        ld      d,e
0ff5 2065      jr      nz,105ch
0ff7 72        ld      (hl),d
0ff8 72        ld      (hl),d
0ff9 6f        ld      l,a
0ffa 72        ld      (hl),d
0ffb 2031      jr      nz,102eh
0ffd 3024      jr      nc,1023h
0fff 0b        dec     bc
1000 44        ld      b,h
1001 4e        ld      c,(hl)
1002 53        ld      d,e
1003 2065      jr      nz,106ah
1005 72        ld      (hl),d
1006 72        ld      (hl),d
1007 6f        ld      l,a
1008 72        ld      (hl),d
1009 2031      jr      nz,103ch
100b 31240c    ld      sp,0c24h
100e 44        ld      b,h
100f 4e        ld      c,(hl)
1010 53        ld      d,e
1011 2065      jr      nz,1078h
1013 72        ld      (hl),d
1014 72        ld      (hl),d
1015 6f        ld      l,a
1016 72        ld      (hl),d
1017 2031      jr      nz,104ah
1019 32240d    ld      (0d24h),a
101c 44        ld      b,h
101d 4e        ld      c,(hl)
101e 53        ld      d,e
101f 2065      jr      nz,1086h
1021 72        ld      (hl),d
1022 72        ld      (hl),d
1023 6f        ld      l,a
1024 72        ld      (hl),d
1025 2031      jr      nz,1058h
1027 33        inc     sp
1028 24        inc     h
1029 0e44      ld      c,44h
102b 4e        ld      c,(hl)
102c 53        ld      d,e
102d 2065      jr      nz,1094h
102f 72        ld      (hl),d
1030 72        ld      (hl),d
1031 6f        ld      l,a
1032 72        ld      (hl),d
1033 2031      jr      nz,1066h
1035 34        inc     (hl)
1036 24        inc     h
1037 0f        rrca    
1038 44        ld      b,h
1039 4e        ld      c,(hl)
103a 53        ld      d,e
103b 2065      jr      nz,10a2h
103d 72        ld      (hl),d
103e 72        ld      (hl),d
103f 6f        ld      l,a
1040 72        ld      (hl),d
1041 2031      jr      nz,1074h
1043 35        dec     (hl)
1044 24        inc     h
1045 1053      djnz    109ah
1047 65        ld      h,l
1048 72        ld      (hl),d
1049 76        halt    
104a 65        ld      h,l
104b 72        ld      (hl),d
104c 2873      jr      z,10c1h
104e 29        add     hl,hl
104f 206e      jr      nz,10bfh
1051 6f        ld      l,a
1052 74        ld      (hl),h
1053 2072      jr      nz,10c7h
1055 65        ld      h,l
1056 73        ld      (hl),e
1057 70        ld      (hl),b
1058 6f        ld      l,a
1059 6e        ld      l,(hl)
105a 64        ld      h,h
105b 69        ld      l,c
105c 6e        ld      l,(hl)
105d 67        ld      h,a
105e 2074      jr      nz,10d4h
1060 6f        ld      l,a
1061 2071      jr      nz,10d4h
1063 75        ld      (hl),l
1064 65        ld      h,l
1065 72        ld      (hl),d
1066 69        ld      l,c
1067 65        ld      h,l
1068 73        ld      (hl),e
1069 24        inc     h
106a 11546f    ld      de,6f54h
106d 74        ld      (hl),h
106e 61        ld      h,c
106f 6c        ld      l,h
1070 206f      jr      nz,10e1h
1072 70        ld      (hl),b
1073 65        ld      h,l
1074 72        ld      (hl),d
1075 61        ld      h,c
1076 74        ld      (hl),h
1077 69        ld      l,c
1078 6f        ld      l,a
1079 6e        ld      l,(hl)
107a 2074      jr      nz,10f0h
107c 69        ld      l,c
107d 6d        ld      l,l
107e 65        ld      h,l
107f 6f        ld      l,a
1080 75        ld      (hl),l
1081 74        ld      (hl),h
1082 2065      jr      nz,10e9h
1084 78        ld      a,b
1085 70        ld      (hl),b
1086 69        ld      l,c
1087 72        ld      (hl),d
1088 65        ld      h,l
1089 64        ld      h,h
108a 24        inc     h
108b 13        inc     de
108c 49        ld      c,c
108d 6e        ld      l,(hl)
108e 74        ld      (hl),h
108f 65        ld      h,l
1090 72        ld      (hl),d
1091 6e        ld      l,(hl)
1092 65        ld      h,l
1093 74        ld      (hl),h
1094 2063      jr      nz,10f9h
1096 6f        ld      l,a
1097 6e        ld      l,(hl)
1098 6e        ld      l,(hl)
1099 65        ld      h,l
109a 63        ld      h,e
109b 74        ld      (hl),h
109c 69        ld      l,c
109d 6f        ld      l,a
109e 6e        ld      l,(hl)
109f 206c      jr      nz,110dh
10a1 6f        ld      l,a
10a2 73        ld      (hl),e
10a3 74        ld      (hl),h
10a4 24        inc     h
10a5 14        inc     d
10a6 44        ld      b,h
10a7 65        ld      h,l
10a8 61        ld      h,c
10a9 64        ld      h,h
10aa 2d        dec     l
10ab 65        ld      h,l
10ac 6e        ld      l,(hl)
10ad 64        ld      h,h
10ae 2072      jr      nz,1122h
10b0 65        ld      h,l
10b1 70        ld      (hl),b
10b2 6c        ld      l,h
10b3 79        ld      a,c
10b4 2028      jr      nz,10deh
10b6 6e        ld      l,(hl)
10b7 6f        ld      l,a
10b8 74        ld      (hl),h
10b9 2063      jr      nz,111eh
10bb 6f        ld      l,a
10bc 6e        ld      l,(hl)
10bd 74        ld      (hl),h
10be 61        ld      h,c
10bf 69        ld      l,c
10c0 6e        ld      l,(hl)
10c1 69        ld      l,c
10c2 6e        ld      l,(hl)
10c3 67        ld      h,a
10c4 2061      jr      nz,1127h
10c6 6e        ld      l,(hl)
10c7 73        ld      (hl),e
10c8 77        ld      (hl),a
10c9 65        ld      h,l
10ca 72        ld      (hl),d
10cb 73        ld      (hl),e
10cc 206e      jr      nz,113ch
10ce 6f        ld      l,a
10cf 72        ld      (hl),d
10d0 2072      jr      nz,1144h
10d2 65        ld      h,l
10d3 64        ld      h,h
10d4 69        ld      l,c
10d5 72        ld      (hl),d
10d6 65        ld      h,l
10d7 63        ld      h,e
10d8 74        ld      (hl),h
10d9 69        ld      l,c
10da 6f        ld      l,a
10db 6e        ld      l,(hl)
10dc 73        ld      (hl),e
10dd 29        add     hl,hl
10de 24        inc     h
10df 15        dec     d
10e0 41        ld      b,c
10e1 6e        ld      l,(hl)
10e2 73        ld      (hl),e
10e3 77        ld      (hl),a
10e4 65        ld      h,l
10e5 72        ld      (hl),d
10e6 2069      jr      nz,1151h
10e8 73        ld      (hl),e
10e9 2074      jr      nz,115fh
10eb 72        ld      (hl),d
10ec 75        ld      (hl),l
10ed 6e        ld      l,(hl)
10ee 63        ld      h,e
10ef 61        ld      h,c
10f0 74        ld      (hl),h
10f1 65        ld      h,l
10f2 64        ld      h,h
10f3 24        inc     h
10f4 00        nop     
10f5 09        add     hl,bc
10f6 54        ld      d,h
10f7 6f        ld      l,a
10f8 6f        ld      l,a
10f9 206d      jr      nz,1168h
10fb 61        ld      h,c
10fc 6e        ld      l,(hl)
10fd 79        ld      a,c
10fe 2054      jr      nz,1154h
1100 43        ld      b,e
1101 50        ld      d,b
1102 2063      jr      nz,1167h
1104 6f        ld      l,a
1105 6e        ld      l,(hl)
1106 6e        ld      l,(hl)
1107 65        ld      h,l
1108 63        ld      h,e
1109 74        ld      (hl),h
110a 69        ld      l,c
110b 6f        ld      l,a
110c 6e        ld      l,(hl)
110d 73        ld      (hl),e
110e 206f      jr      nz,117fh
1110 70        ld      (hl),b
1111 65        ld      h,l
1112 6e        ld      l,(hl)
1113 65        ld      h,l
1114 64        ld      h,h
1115 24        inc     h
1116 02        ld      (bc),a
1117 4e        ld      c,(hl)
1118 6f        ld      l,a
1119 206e      jr      nz,1189h
111b 65        ld      h,l
111c 74        ld      (hl),h
111d 77        ld      (hl),a
111e 6f        ld      l,a
111f 72        ld      (hl),d
1120 6b        ld      l,e
1121 2063      jr      nz,1186h
1123 6f        ld      l,a
1124 6e        ld      l,(hl)
1125 6e        ld      l,(hl)
1126 65        ld      h,l
1127 63        ld      h,e
1128 74        ld      (hl),h
1129 69        ld      l,c
112a 6f        ld      l,a
112b 6e        ld      l,(hl)
112c 2066      jr      nz,1194h
112e 6f        ld      l,a
112f 75        ld      (hl),l
1130 6e        ld      l,(hl)
1131 64        ld      h,h
1132 24        inc     h
1133 0a        ld      a,(bc)
1134 43        ld      b,e
1135 6f        ld      l,a
1136 6e        ld      l,(hl)
1137 6e        ld      l,(hl)
1138 65        ld      h,l
1139 63        ld      h,e
113a 74        ld      (hl),h
113b 69        ld      l,c
113c 6f        ld      l,a
113d 6e        ld      l,(hl)
113e 2061      jr      nz,11a1h
1140 6c        ld      l,h
1141 72        ld      (hl),d
1142 65        ld      h,l
1143 61        ld      h,c
1144 64        ld      h,h
1145 79        ld      a,c
1146 2065      jr      nz,11adh
1148 78        ld      a,b
1149 69        ld      l,c
114a 73        ld      (hl),e
114b 74        ld      (hl),h
114c 73        ld      (hl),e
114d 2c        inc     l
114e 2074      jr      nz,11c4h
1150 72        ld      (hl),d
1151 79        ld      a,c
1152 2061      jr      nz,11b5h
1154 6e        ld      l,(hl)
1155 6f        ld      l,a
1156 74        ld      (hl),h
1157 68        ld      l,b
1158 65        ld      h,l
1159 72        ld      (hl),d
115a 206c      jr      nz,11c8h
115c 6f        ld      l,a
115d 63        ld      h,e
115e 61        ld      h,c
115f 6c        ld      l,h
1160 2070      jr      nz,11d2h
1162 6f        ld      l,a
1163 72        ld      (hl),d
1164 74        ld      (hl),h
1165 206e      jr      nz,11d5h
1167 75        ld      (hl),l
1168 6d        ld      l,l
1169 62        ld      h,d
116a 65        ld      h,l
116b 72        ld      (hl),d
116c 24        inc     h
116d 04        inc     b
116e 55        ld      d,l
116f 6e        ld      l,(hl)
1170 65        ld      h,l
1171 73        ld      (hl),e
1172 70        ld      (hl),b
1173 65        ld      h,l
1174 63        ld      h,e
1175 69        ld      l,c
1176 66        ld      h,(hl)
1177 69        ld      l,c
1178 65        ld      h,l
1179 64        ld      h,h
117a 2072      jr      nz,11eeh
117c 65        ld      h,l
117d 6d        ld      l,l
117e 6f        ld      l,a
117f 74        ld      (hl),h
1180 65        ld      h,l
1181 2073      jr      nz,11f6h
1183 6f        ld      l,a
1184 63        ld      h,e
1185 6b        ld      l,e
1186 65        ld      h,l
1187 74        ld      (hl),h
1188 2069      jr      nz,11f3h
118a 73        ld      (hl),e
118b 206e      jr      nz,11fbh
118d 6f        ld      l,a
118e 74        ld      (hl),h
118f 2061      jr      nz,11f2h
1191 6c        ld      l,h
1192 6c        ld      l,h
1193 6f        ld      l,a
1194 77        ld      (hl),a
1195 65        ld      h,l
1196 64        ld      h,h
1197 206f      jr      nz,1208h
1199 6e        ld      l,(hl)
119a 2061      jr      nz,11fdh
119c 63        ld      h,e
119d 74        ld      (hl),h
119e 69        ld      l,c
119f 76        halt    
11a0 65        ld      h,l
11a1 2063      jr      nz,1206h
11a3 6f        ld      l,a
11a4 6e        ld      l,(hl)
11a5 6e        ld      l,(hl)
11a6 65        ld      h,l
11a7 63        ld      h,e
11a8 74        ld      (hl),h
11a9 69        ld      l,c
11aa 6f        ld      l,a
11ab 6e        ld      l,(hl)
11ac 73        ld      (hl),e
11ad 24        inc     h
11ae 00        nop     
11af 80        add     a,b
11b0 2a2a2a    ld      hl,(2a2ah)
11b3 2043      jr      nz,11f8h
11b5 6f        ld      l,a
11b6 6e        ld      l,(hl)
11b7 6e        ld      l,(hl)
11b8 65        ld      h,l
11b9 63        ld      h,e
11ba 74        ld      (hl),h
11bb 69        ld      l,c
11bc 6f        ld      l,a
11bd 6e        ld      l,(hl)
11be 2063      jr      nz,1223h
11c0 6c        ld      l,h
11c1 6f        ld      l,a
11c2 73        ld      (hl),e
11c3 65        ld      h,l
11c4 64        ld      h,h
11c5 2062      jr      nz,1229h
11c7 79        ld      a,c
11c8 2075      jr      nz,123fh
11ca 6e        ld      l,(hl)
11cb 6b        ld      l,e
11cc 6e        ld      l,(hl)
11cd 6f        ld      l,a
11ce 77        ld      (hl),a
11cf 6e        ld      l,(hl)
11d0 2072      jr      nz,1244h
11d2 65        ld      h,l
11d3 61        ld      h,c
11d4 73        ld      (hl),e
11d5 6f        ld      l,a
11d6 6e        ld      l,(hl)
11d7 24        inc     h
11d8 81        add     a,c
11d9 2a2a2a    ld      hl,(2a2ah)
11dc 2043      jr      nz,1221h
11de 6f        ld      l,a
11df 6e        ld      l,(hl)
11e0 6e        ld      l,(hl)
11e1 65        ld      h,l
11e2 63        ld      h,e
11e3 74        ld      (hl),h
11e4 69        ld      l,c
11e5 6f        ld      l,a
11e6 6e        ld      l,(hl)
11e7 2063      jr      nz,124ch
11e9 6c        ld      l,h
11ea 6f        ld      l,a
11eb 73        ld      (hl),e
11ec 65        ld      h,l
11ed 64        ld      h,h
11ee 2062      jr      nz,1252h
11f0 79        ld      a,c
11f1 2070      jr      nz,1263h
11f3 65        ld      h,l
11f4 65        ld      h,l
11f5 72        ld      (hl),d
11f6 24        inc     h
11f7 82        add     a,d
11f8 2a2a2a    ld      hl,(2a2ah)
11fb 2043      jr      nz,1240h
11fd 6f        ld      l,a
11fe 6e        ld      l,(hl)
11ff 6e        ld      l,(hl)
1200 65        ld      h,l
1201 63        ld      h,e
1202 74        ld      (hl),h
1203 69        ld      l,c
1204 6f        ld      l,a
1205 6e        ld      l,(hl)
1206 206c      jr      nz,1274h
1208 6f        ld      l,a
1209 63        ld      h,e
120a 61        ld      h,c
120b 6c        ld      l,h
120c 6c        ld      l,h
120d 79        ld      a,c
120e 2061      jr      nz,1271h
1210 62        ld      h,d
1211 6f        ld      l,a
1212 72        ld      (hl),d
1213 74        ld      (hl),h
1214 65        ld      h,l
1215 64        ld      h,h
1216 24        inc     h
1217 83        add     a,e
1218 2a2a2a    ld      hl,(2a2ah)
121b 2043      jr      nz,1260h
121d 6f        ld      l,a
121e 6e        ld      l,(hl)
121f 6e        ld      l,(hl)
1220 65        ld      h,l
1221 63        ld      h,e
1222 74        ld      (hl),h
1223 69        ld      l,c
1224 6f        ld      l,a
1225 6e        ld      l,(hl)
1226 2072      jr      nz,129ah
1228 65        ld      h,l
1229 66        ld      h,(hl)
122a 75        ld      (hl),l
122b 73        ld      (hl),e
122c 65        ld      h,l
122d 64        ld      h,h
122e 2028      jr      nz,1258h
1230 52        ld      d,d
1231 53        ld      d,e
1232 54        ld      d,h
1233 2072      jr      nz,12a7h
1235 65        ld      h,l
1236 63        ld      h,e
1237 65        ld      h,l
1238 69        ld      l,c
1239 76        halt    
123a 65        ld      h,l
123b 64        ld      h,h
123c 29        add     hl,hl
123d 24        inc     h
123e 84        add     a,h
123f 2a2a2a    ld      hl,(2a2ah)
1242 2044      jr      nz,1288h
1244 61        ld      h,c
1245 74        ld      (hl),h
1246 61        ld      h,c
1247 2073      jr      nz,12bch
1249 65        ld      h,l
124a 6e        ld      l,(hl)
124b 64        ld      h,h
124c 69        ld      l,c
124d 6e        ld      l,(hl)
124e 67        ld      h,a
124f 2074      jr      nz,12c5h
1251 69        ld      l,c
1252 6d        ld      l,l
1253 65        ld      h,l
1254 6f        ld      l,a
1255 75        ld      (hl),l
1256 74        ld      (hl),h
1257 2065      jr      nz,12beh
1259 78        ld      a,b
125a 70        ld      (hl),b
125b 69        ld      l,c
125c 72        ld      (hl),d
125d 65        ld      h,l
125e 64        ld      h,h
125f 24        inc     h
1260 85        add     a,l
1261 2a2a2a    ld      hl,(2a2ah)
1264 2043      jr      nz,12a9h
1266 6f        ld      l,a
1267 6e        ld      l,(hl)
1268 6e        ld      l,(hl)
1269 65        ld      h,l
126a 63        ld      h,e
126b 74        ld      (hl),h
126c 69        ld      l,c
126d 6f        ld      l,a
126e 6e        ld      l,(hl)
126f 2074      jr      nz,12e5h
1271 69        ld      l,c
1272 6d        ld      l,l
1273 65        ld      h,l
1274 6f        ld      l,a
1275 75        ld      (hl),l
1276 74        ld      (hl),h
1277 2065      jr      nz,12deh
1279 78        ld      a,b
127a 70        ld      (hl),b
127b 69        ld      l,c
127c 72        ld      (hl),d
127d 65        ld      h,l
127e 64        ld      h,h
127f 24        inc     h
1280 86        add     a,(hl)
1281 2a2a2a    ld      hl,(2a2ah)
1284 2049      jr      nz,12cfh
1286 6e        ld      l,(hl)
1287 74        ld      (hl),h
1288 65        ld      h,l
1289 72        ld      (hl),d
128a 6e        ld      l,(hl)
128b 65        ld      h,l
128c 74        ld      (hl),h
128d 2063      jr      nz,12f2h
128f 6f        ld      l,a
1290 6e        ld      l,(hl)
1291 6e        ld      l,(hl)
1292 65        ld      h,l
1293 63        ld      h,e
1294 74        ld      (hl),h
1295 69        ld      l,c
1296 6f        ld      l,a
1297 6e        ld      l,(hl)
1298 206c      jr      nz,1306h
129a 6f        ld      l,a
129b 73        ld      (hl),e
129c 74        ld      (hl),h
129d 24        inc     h
129e 87        add     a,a
129f 2a2a2a    ld      hl,(2a2ah)
12a2 2044      jr      nz,12e8h
12a4 65        ld      h,l
12a5 73        ld      (hl),e
12a6 74        ld      (hl),h
12a7 69        ld      l,c
12a8 6e        ld      l,(hl)
12a9 61        ld      h,c
12aa 74        ld      (hl),h
12ab 69        ld      l,c
12ac 6f        ld      l,a
12ad 6e        ld      l,(hl)
12ae 2068      jr      nz,1318h
12b0 6f        ld      l,a
12b1 73        ld      (hl),e
12b2 74        ld      (hl),h
12b3 2069      jr      nz,131eh
12b5 73        ld      (hl),e
12b6 2075      jr      nz,132dh
12b8 6e        ld      l,(hl)
12b9 72        ld      (hl),d
12ba 65        ld      h,l
12bb 61        ld      h,c
12bc 63        ld      h,e
12bd 68        ld      l,b
12be 61        ld      h,c
12bf 62        ld      h,d
12c0 6c        ld      l,h
12c1 65        ld      h,l
12c2 24        inc     h
12c3 00        nop     
12c4 0c        inc     c
12c5 2a2a2a    ld      hl,(2a2ah)
12c8 2054      jr      nz,131eh
12ca 68        ld      l,b
12cb 65        ld      h,l
12cc 2063      jr      nz,1331h
12ce 6f        ld      l,a
12cf 6e        ld      l,(hl)
12d0 6e        ld      l,(hl)
12d1 65        ld      h,l
12d2 63        ld      h,e
12d3 74        ld      (hl),h
12d4 69        ld      l,c
12d5 6f        ld      l,a
12d6 6e        ld      l,(hl)
12d7 2073      jr      nz,134ch
12d9 74        ld      (hl),h
12da 61        ld      h,c
12db 74        ld      (hl),h
12dc 65        ld      h,l
12dd 2064      jr      nz,1343h
12df 6f        ld      l,a
12e0 65        ld      h,l
12e1 73        ld      (hl),e
12e2 206e      jr      nz,1352h
12e4 6f        ld      l,a
12e5 74        ld      (hl),h
12e6 2061      jr      nz,1349h
12e8 6c        ld      l,h
12e9 6c        ld      l,h
12ea 6f        ld      l,a
12eb 77        ld      (hl),a
12ec 2073      jr      nz,1361h
12ee 65        ld      h,l
12ef 6e        ld      l,(hl)
12f0 64        ld      h,h
12f1 69        ld      l,c
12f2 6e        ld      l,(hl)
12f3 67        ld      h,a
12f4 2064      jr      nz,135ah
12f6 61        ld      h,c
12f7 74        ld      (hl),h
12f8 61        ld      h,c
12f9 24        inc     h
12fa 0d        dec     c
12fb 2a2a2a    ld      hl,(2a2ah)
12fe 204f      jr      nz,134fh
1300 75        ld      (hl),l
1301 74        ld      (hl),h
1302 70        ld      (hl),b
1303 75        ld      (hl),l
1304 74        ld      (hl),h
1305 2062      jr      nz,1369h
1307 75        ld      (hl),l
1308 66        ld      h,(hl)
1309 66        ld      h,(hl)
130a 65        ld      h,l
130b 72        ld      (hl),d
130c 206f      jr      nz,137dh
130e 76        halt    
130f 65        ld      h,l
1310 72        ld      (hl),d
1311 66        ld      h,(hl)
1312 6c        ld      l,h
1313 6f        ld      l,a
1314 77        ld      (hl),a
1315 24        inc     h
1316 04        inc     b
1317 2a2a2a    ld      hl,(2a2ah)
131a 2049      jr      nz,1365h
131c 6e        ld      l,(hl)
131d 76        halt    
131e 61        ld      h,c
131f 6c        ld      l,h
1320 69        ld      l,c
1321 64        ld      h,h
1322 2070      jr      nz,1394h
1324 61        ld      h,c
1325 72        ld      (hl),d
1326 61        ld      h,c
1327 6d        ld      l,l
1328 65        ld      h,l
1329 74        ld      (hl),h
132a 65        ld      h,l
132b 72        ld      (hl),d
132c 24        inc     h
132d 00        nop     
132e 2a2a2a    ld      hl,(2a2ah)
1331 204e      jr      nz,1381h
1333 6f        ld      l,a
1334 2054      jr      nz,138ah
1336 43        ld      b,e
1337 50        ld      d,b
1338 2f        cpl     
1339 49        ld      c,c
133a 50        ld      d,b
133b 2055      jr      nz,1392h
133d 4e        ld      c,(hl)
133e 41        ld      b,c
133f 50        ld      d,b
1340 49        ld      c,c
1341 2069      jr      nz,13ach
1343 6d        ld      l,l
1344 70        ld      (hl),b
1345 6c        ld      l,h
1346 65        ld      h,l
1347 6d        ld      l,l
1348 65        ld      h,l
1349 6e        ld      l,(hl)
134a 74        ld      (hl),h
134b 61        ld      h,c
134c 74        ld      (hl),h
134d 69        ld      l,c
134e 6f        ld      l,a
134f 6e        ld      l,(hl)
1350 2066      jr      nz,13b8h
1352 6f        ld      l,a
1353 75        ld      (hl),l
1354 6e        ld      l,(hl)
1355 64        ld      h,h
1356 2e0d      ld      l,0dh
1358 0a        ld      a,(bc)
1359 24        inc     h
135a 2a2a2a    ld      hl,(2a2ah)
135d 2054      jr      nz,13b3h
135f 68        ld      l,b
1360 69        ld      l,c
1361 73        ld      (hl),e
1362 2054      jr      nz,13b8h
1364 43        ld      b,e
1365 50        ld      d,b
1366 2f        cpl     
1367 49        ld      c,c
1368 50        ld      d,b
1369 2055      jr      nz,13c0h
136b 4e        ld      c,(hl)
136c 41        ld      b,c
136d 50        ld      d,b
136e 49        ld      c,c
136f 2069      jr      nz,13dah
1371 6d        ld      l,l
1372 70        ld      (hl),b
1373 6c        ld      l,h
1374 65        ld      h,l
1375 6d        ld      l,l
1376 65        ld      h,l
1377 6e        ld      l,(hl)
1378 74        ld      (hl),h
1379 61        ld      h,c
137a 74        ld      (hl),h
137b 69        ld      l,c
137c 6f        ld      l,a
137d 6e        ld      l,(hl)
137e 2064      jr      nz,13e4h
1380 6f        ld      l,a
1381 65        ld      h,l
1382 73        ld      (hl),e
1383 206e      jr      nz,13f3h
1385 6f        ld      l,a
1386 74        ld      (hl),h
1387 2073      jr      nz,13fch
1389 75        ld      (hl),l
138a 70        ld      (hl),b
138b 70        ld      (hl),b
138c 6f        ld      l,a
138d 72        ld      (hl),d
138e 74        ld      (hl),h
138f 0d        dec     c
1390 0a        ld      a,(bc)
1391 2020      jr      nz,13b3h
1393 2020      jr      nz,13b5h
1395 6f        ld      l,a
1396 70        ld      (hl),b
1397 65        ld      h,l
1398 6e        ld      l,(hl)
1399 69        ld      l,c
139a 6e        ld      l,(hl)
139b 67        ld      h,a
139c 2061      jr      nz,13ffh
139e 63        ld      h,e
139f 74        ld      (hl),h
13a0 69        ld      l,c
13a1 76        halt    
13a2 65        ld      h,l
13a3 2054      jr      nz,13f9h
13a5 43        ld      b,e
13a6 50        ld      d,b
13a7 2063      jr      nz,140ch
13a9 6f        ld      l,a
13aa 6e        ld      l,(hl)
13ab 6e        ld      l,(hl)
13ac 65        ld      h,l
13ad 63        ld      h,e
13ae 74        ld      (hl),h
13af 69        ld      l,c
13b0 6f        ld      l,a
13b1 6e        ld      l,(hl)
13b2 73        ld      (hl),e
13b3 2e0d      ld      l,0dh
13b5 0a        ld      a,(bc)
13b6 24        inc     h
13b7 2a2a2a    ld      hl,(2a2ah)
13ba 2054      jr      nz,1410h
13bc 68        ld      l,b
13bd 69        ld      l,c
13be 73        ld      (hl),e
13bf 2054      jr      nz,1415h
13c1 43        ld      b,e
13c2 50        ld      d,b
13c3 2f        cpl     
13c4 49        ld      c,c
13c5 50        ld      d,b
13c6 2055      jr      nz,141dh
13c8 4e        ld      c,(hl)
13c9 41        ld      b,c
13ca 50        ld      d,b
13cb 49        ld      c,c
13cc 2069      jr      nz,1437h
13ce 6d        ld      l,l
13cf 70        ld      (hl),b
13d0 6c        ld      l,h
13d1 65        ld      h,l
13d2 6d        ld      l,l
13d3 65        ld      h,l
13d4 6e        ld      l,(hl)
13d5 74        ld      (hl),h
13d6 61        ld      h,c
13d7 74        ld      (hl),h
13d8 69        ld      l,c
13d9 6f        ld      l,a
13da 6e        ld      l,(hl)
13db 2064      jr      nz,1441h
13dd 6f        ld      l,a
13de 65        ld      h,l
13df 73        ld      (hl),e
13e0 206e      jr      nz,1450h
13e2 6f        ld      l,a
13e3 74        ld      (hl),h
13e4 2073      jr      nz,1459h
13e6 75        ld      (hl),l
13e7 70        ld      (hl),b
13e8 70        ld      (hl),b
13e9 6f        ld      l,a
13ea 72        ld      (hl),d
13eb 74        ld      (hl),h
13ec 0d        dec     c
13ed 0a        ld      a,(bc)
13ee 2020      jr      nz,1410h
13f0 2020      jr      nz,1412h
13f2 6f        ld      l,a
13f3 70        ld      (hl),b
13f4 65        ld      h,l
13f5 6e        ld      l,(hl)
13f6 69        ld      l,c
13f7 6e        ld      l,(hl)
13f8 67        ld      h,a
13f9 2070      jr      nz,146bh
13fb 61        ld      h,c
13fc 73        ld      (hl),e
13fd 73        ld      (hl),e
13fe 69        ld      l,c
13ff 76        halt    
1400 65        ld      h,l
1401 2054      jr      nz,1457h
1403 43        ld      b,e
1404 50        ld      d,b
1405 2063      jr      nz,146ah
1407 6f        ld      l,a
1408 6e        ld      l,(hl)
1409 6e        ld      l,(hl)
140a 65        ld      h,l
140b 63        ld      h,e
140c 74        ld      (hl),h
140d 69        ld      l,c
140e 6f        ld      l,a
140f 6e        ld      l,(hl)
1410 73        ld      (hl),e
1411 2077      jr      nz,148ah
1413 69        ld      l,c
1414 74        ld      (hl),h
1415 68        ld      l,b
1416 2072      jr      nz,148ah
1418 65        ld      h,l
1419 6d        ld      l,l
141a 6f        ld      l,a
141b 74        ld      (hl),h
141c 65        ld      h,l
141d 2073      jr      nz,1492h
141f 6f        ld      l,a
1420 63        ld      h,e
1421 6b        ld      l,e
1422 65        ld      h,l
1423 74        ld      (hl),h
1424 2073      jr      nz,1499h
1426 70        ld      (hl),b
1427 65        ld      h,l
1428 63        ld      h,e
1429 69        ld      l,c
142a 66        ld      h,(hl)
142b 69        ld      l,c
142c 65        ld      h,l
142d 64        ld      h,h
142e 2e0d      ld      l,0dh
1430 0a        ld      a,(bc)
1431 24        inc     h
1432 2a2a2a    ld      hl,(2a2ah)
1435 2054      jr      nz,148bh
1437 68        ld      l,b
1438 69        ld      l,c
1439 73        ld      (hl),e
143a 2054      jr      nz,1490h
143c 43        ld      b,e
143d 50        ld      d,b
143e 2f        cpl     
143f 49        ld      c,c
1440 50        ld      d,b
1441 2055      jr      nz,1498h
1443 4e        ld      c,(hl)
1444 41        ld      b,c
1445 50        ld      d,b
1446 49        ld      c,c
1447 2069      jr      nz,14b2h
1449 6d        ld      l,l
144a 70        ld      (hl),b
144b 6c        ld      l,h
144c 65        ld      h,l
144d 6d        ld      l,l
144e 65        ld      h,l
144f 6e        ld      l,(hl)
1450 74        ld      (hl),h
1451 61        ld      h,c
1452 74        ld      (hl),h
1453 69        ld      l,c
1454 6f        ld      l,a
1455 6e        ld      l,(hl)
1456 2064      jr      nz,14bch
1458 6f        ld      l,a
1459 65        ld      h,l
145a 73        ld      (hl),e
145b 206e      jr      nz,14cbh
145d 6f        ld      l,a
145e 74        ld      (hl),h
145f 2073      jr      nz,14d4h
1461 75        ld      (hl),l
1462 70        ld      (hl),b
1463 70        ld      (hl),b
1464 6f        ld      l,a
1465 72        ld      (hl),d
1466 74        ld      (hl),h
1467 0d        dec     c
1468 0a        ld      a,(bc)
1469 2020      jr      nz,148bh
146b 2020      jr      nz,148dh
146d 6f        ld      l,a
146e 70        ld      (hl),b
146f 65        ld      h,l
1470 6e        ld      l,(hl)
1471 69        ld      l,c
1472 6e        ld      l,(hl)
1473 67        ld      h,a
1474 2070      jr      nz,14e6h
1476 61        ld      h,c
1477 73        ld      (hl),e
1478 73        ld      (hl),e
1479 69        ld      l,c
147a 76        halt    
147b 65        ld      h,l
147c 2054      jr      nz,14d2h
147e 43        ld      b,e
147f 50        ld      d,b
1480 2063      jr      nz,14e5h
1482 6f        ld      l,a
1483 6e        ld      l,(hl)
1484 6e        ld      l,(hl)
1485 65        ld      h,l
1486 63        ld      h,e
1487 74        ld      (hl),h
1488 69        ld      l,c
1489 6f        ld      l,a
148a 6e        ld      l,(hl)
148b 73        ld      (hl),e
148c 2077      jr      nz,1505h
148e 69        ld      l,c
148f 74        ld      (hl),h
1490 68        ld      l,b
1491 2072      jr      nz,1505h
1493 65        ld      h,l
1494 6d        ld      l,l
1495 6f        ld      l,a
1496 74        ld      (hl),h
1497 65        ld      h,l
1498 2073      jr      nz,150dh
149a 6f        ld      l,a
149b 63        ld      h,e
149c 6b        ld      l,e
149d 65        ld      h,l
149e 74        ld      (hl),h
149f 2073      jr      nz,1514h
14a1 70        ld      (hl),b
14a2 65        ld      h,l
14a3 63        ld      h,e
14a4 69        ld      l,c
14a5 66        ld      h,(hl)
14a6 69        ld      l,c
14a7 65        ld      h,l
14a8 64        ld      h,h
14a9 2e0d      ld      l,0dh
14ab 0a        ld      a,(bc)
14ac 24        inc     h
14ad 54        ld      d,h
14ae 43        ld      b,e
14af 50        ld      d,b
14b0 2f        cpl     
14b1 49        ld      c,c
14b2 50        ld      d,b
14b3 00        nop     
14b4 00        nop     
14b5 00        nop     
14b6 00        nop     
14b7 00        nop     
14b8 00        nop     
14b9 00        nop     
14ba 00        nop     
14bb 00        nop     
14bc 00        nop     
14bd 00        nop     
